
./MicroServiceDaemonOS:     file format elf64-x86-64


Disassembly of section .init:

00000000000009d0 <.init>:
 9d0:	48 83 ec 08          	sub    $0x8,%rsp
 9d4:	48 8b 05 0d 26 20 00 	mov    0x20260d(%rip),%rax        # 202fe8 <__cxa_finalize@plt+0x2024c8>
 9db:	48 85 c0             	test   %rax,%rax
 9de:	74 02                	je     9e2 <free@plt-0x1e>
 9e0:	ff d0                	callq  *%rax
 9e2:	48 83 c4 08          	add    $0x8,%rsp
 9e6:	c3                   	retq   

Disassembly of section .plt:

00000000000009f0 <free@plt-0x10>:
 9f0:	ff 35 42 25 20 00    	pushq  0x202542(%rip)        # 202f38 <__cxa_finalize@plt+0x202418>
 9f6:	ff 25 44 25 20 00    	jmpq   *0x202544(%rip)        # 202f40 <__cxa_finalize@plt+0x202420>
 9fc:	0f 1f 40 00          	nopl   0x0(%rax)

0000000000000a00 <free@plt>:
 a00:	ff 25 42 25 20 00    	jmpq   *0x202542(%rip)        # 202f48 <__cxa_finalize@plt+0x202428>
 a06:	68 00 00 00 00       	pushq  $0x0
 a0b:	e9 e0 ff ff ff       	jmpq   9f0 <free@plt-0x10>

0000000000000a10 <putchar@plt>:
 a10:	ff 25 3a 25 20 00    	jmpq   *0x20253a(%rip)        # 202f50 <__cxa_finalize@plt+0x202430>
 a16:	68 01 00 00 00       	pushq  $0x1
 a1b:	e9 d0 ff ff ff       	jmpq   9f0 <free@plt-0x10>

0000000000000a20 <abort@plt>:
 a20:	ff 25 32 25 20 00    	jmpq   *0x202532(%rip)        # 202f58 <__cxa_finalize@plt+0x202438>
 a26:	68 02 00 00 00       	pushq  $0x2
 a2b:	e9 c0 ff ff ff       	jmpq   9f0 <free@plt-0x10>

0000000000000a30 <puts@plt>:
 a30:	ff 25 2a 25 20 00    	jmpq   *0x20252a(%rip)        # 202f60 <__cxa_finalize@plt+0x202440>
 a36:	68 03 00 00 00       	pushq  $0x3
 a3b:	e9 b0 ff ff ff       	jmpq   9f0 <free@plt-0x10>

0000000000000a40 <fread@plt>:
 a40:	ff 25 22 25 20 00    	jmpq   *0x202522(%rip)        # 202f68 <__cxa_finalize@plt+0x202448>
 a46:	68 04 00 00 00       	pushq  $0x4
 a4b:	e9 a0 ff ff ff       	jmpq   9f0 <free@plt-0x10>

0000000000000a50 <write@plt>:
 a50:	ff 25 1a 25 20 00    	jmpq   *0x20251a(%rip)        # 202f70 <__cxa_finalize@plt+0x202450>
 a56:	68 05 00 00 00       	pushq  $0x5
 a5b:	e9 90 ff ff ff       	jmpq   9f0 <free@plt-0x10>

0000000000000a60 <fclose@plt>:
 a60:	ff 25 12 25 20 00    	jmpq   *0x202512(%rip)        # 202f78 <__cxa_finalize@plt+0x202458>
 a66:	68 06 00 00 00       	pushq  $0x6
 a6b:	e9 80 ff ff ff       	jmpq   9f0 <free@plt-0x10>

0000000000000a70 <setbuf@plt>:
 a70:	ff 25 0a 25 20 00    	jmpq   *0x20250a(%rip)        # 202f80 <__cxa_finalize@plt+0x202460>
 a76:	68 07 00 00 00       	pushq  $0x7
 a7b:	e9 70 ff ff ff       	jmpq   9f0 <free@plt-0x10>

0000000000000a80 <printf@plt>:
 a80:	ff 25 02 25 20 00    	jmpq   *0x202502(%rip)        # 202f88 <__cxa_finalize@plt+0x202468>
 a86:	68 08 00 00 00       	pushq  $0x8
 a8b:	e9 60 ff ff ff       	jmpq   9f0 <free@plt-0x10>

0000000000000a90 <memset@plt>:
 a90:	ff 25 fa 24 20 00    	jmpq   *0x2024fa(%rip)        # 202f90 <__cxa_finalize@plt+0x202470>
 a96:	68 09 00 00 00       	pushq  $0x9
 a9b:	e9 50 ff ff ff       	jmpq   9f0 <free@plt-0x10>

0000000000000aa0 <alarm@plt>:
 aa0:	ff 25 f2 24 20 00    	jmpq   *0x2024f2(%rip)        # 202f98 <__cxa_finalize@plt+0x202478>
 aa6:	68 0a 00 00 00       	pushq  $0xa
 aab:	e9 40 ff ff ff       	jmpq   9f0 <free@plt-0x10>

0000000000000ab0 <read@plt>:
 ab0:	ff 25 ea 24 20 00    	jmpq   *0x2024ea(%rip)        # 202fa0 <__cxa_finalize@plt+0x202480>
 ab6:	68 0b 00 00 00       	pushq  $0xb
 abb:	e9 30 ff ff ff       	jmpq   9f0 <free@plt-0x10>

0000000000000ac0 <getchar@plt>:
 ac0:	ff 25 e2 24 20 00    	jmpq   *0x2024e2(%rip)        # 202fa8 <__cxa_finalize@plt+0x202488>
 ac6:	68 0c 00 00 00       	pushq  $0xc
 acb:	e9 20 ff ff ff       	jmpq   9f0 <free@plt-0x10>

0000000000000ad0 <memcpy@plt>:
 ad0:	ff 25 da 24 20 00    	jmpq   *0x2024da(%rip)        # 202fb0 <__cxa_finalize@plt+0x202490>
 ad6:	68 0d 00 00 00       	pushq  $0xd
 adb:	e9 10 ff ff ff       	jmpq   9f0 <free@plt-0x10>

0000000000000ae0 <malloc@plt>:
 ae0:	ff 25 d2 24 20 00    	jmpq   *0x2024d2(%rip)        # 202fb8 <__cxa_finalize@plt+0x202498>
 ae6:	68 0e 00 00 00       	pushq  $0xe
 aeb:	e9 00 ff ff ff       	jmpq   9f0 <free@plt-0x10>

0000000000000af0 <mprotect@plt>:
 af0:	ff 25 ca 24 20 00    	jmpq   *0x2024ca(%rip)        # 202fc0 <__cxa_finalize@plt+0x2024a0>
 af6:	68 0f 00 00 00       	pushq  $0xf
 afb:	e9 f0 fe ff ff       	jmpq   9f0 <free@plt-0x10>

0000000000000b00 <fopen@plt>:
 b00:	ff 25 c2 24 20 00    	jmpq   *0x2024c2(%rip)        # 202fc8 <__cxa_finalize@plt+0x2024a8>
 b06:	68 10 00 00 00       	pushq  $0x10
 b0b:	e9 e0 fe ff ff       	jmpq   9f0 <free@plt-0x10>

0000000000000b10 <__isoc99_scanf@plt>:
 b10:	ff 25 ba 24 20 00    	jmpq   *0x2024ba(%rip)        # 202fd0 <__cxa_finalize@plt+0x2024b0>
 b16:	68 11 00 00 00       	pushq  $0x11
 b1b:	e9 d0 fe ff ff       	jmpq   9f0 <free@plt-0x10>

Disassembly of section .plt.got:

0000000000000b20 <__cxa_finalize@plt>:
 b20:	ff 25 d2 24 20 00    	jmpq   *0x2024d2(%rip)        # 202ff8 <__cxa_finalize@plt+0x2024d8>
 b26:	66 90                	xchg   %ax,%ax

Disassembly of section .text:

0000000000000b30 <.text>:
     b30:	31 ed                	xor    %ebp,%ebp
     b32:	49 89 d1             	mov    %rdx,%r9
     b35:	5e                   	pop    %rsi
     b36:	48 89 e2             	mov    %rsp,%rdx
     b39:	48 83 e4 f0          	and    $0xfffffffffffffff0,%rsp
     b3d:	50                   	push   %rax
     b3e:	54                   	push   %rsp
     b3f:	4c 8d 05 aa 19 00 00 	lea    0x19aa(%rip),%r8        # 24f0 <__cxa_finalize@plt+0x19d0>
     b46:	48 8d 0d 33 19 00 00 	lea    0x1933(%rip),%rcx        # 2480 <__cxa_finalize@plt+0x1960>
     b4d:	48 8d 3d 9e 18 00 00 	lea    0x189e(%rip),%rdi        # 23f2 <__cxa_finalize@plt+0x18d2>
     b54:	ff 15 86 24 20 00    	callq  *0x202486(%rip)        # 202fe0 <__cxa_finalize@plt+0x2024c0>
     b5a:	f4                   	hlt    
     b5b:	0f 1f 44 00 00       	nopl   0x0(%rax,%rax,1)
     b60:	48 8d 3d 01 25 20 00 	lea    0x202501(%rip),%rdi        # 203068 <__cxa_finalize@plt+0x202548>
     b67:	55                   	push   %rbp
     b68:	48 8d 05 f9 24 20 00 	lea    0x2024f9(%rip),%rax        # 203068 <__cxa_finalize@plt+0x202548>
     b6f:	48 39 f8             	cmp    %rdi,%rax
     b72:	48 89 e5             	mov    %rsp,%rbp
     b75:	74 19                	je     b90 <__cxa_finalize@plt+0x70>
     b77:	48 8b 05 5a 24 20 00 	mov    0x20245a(%rip),%rax        # 202fd8 <__cxa_finalize@plt+0x2024b8>
     b7e:	48 85 c0             	test   %rax,%rax
     b81:	74 0d                	je     b90 <__cxa_finalize@plt+0x70>
     b83:	5d                   	pop    %rbp
     b84:	ff e0                	jmpq   *%rax
     b86:	66 2e 0f 1f 84 00 00 	nopw   %cs:0x0(%rax,%rax,1)
     b8d:	00 00 00 
     b90:	5d                   	pop    %rbp
     b91:	c3                   	retq   
     b92:	0f 1f 40 00          	nopl   0x0(%rax)
     b96:	66 2e 0f 1f 84 00 00 	nopw   %cs:0x0(%rax,%rax,1)
     b9d:	00 00 00 
     ba0:	48 8d 3d c1 24 20 00 	lea    0x2024c1(%rip),%rdi        # 203068 <__cxa_finalize@plt+0x202548>
     ba7:	48 8d 35 ba 24 20 00 	lea    0x2024ba(%rip),%rsi        # 203068 <__cxa_finalize@plt+0x202548>
     bae:	55                   	push   %rbp
     baf:	48 29 fe             	sub    %rdi,%rsi
     bb2:	48 89 e5             	mov    %rsp,%rbp
     bb5:	48 c1 fe 03          	sar    $0x3,%rsi
     bb9:	48 89 f0             	mov    %rsi,%rax
     bbc:	48 c1 e8 3f          	shr    $0x3f,%rax
     bc0:	48 01 c6             	add    %rax,%rsi
     bc3:	48 d1 fe             	sar    %rsi
     bc6:	74 18                	je     be0 <__cxa_finalize@plt+0xc0>
     bc8:	48 8b 05 21 24 20 00 	mov    0x202421(%rip),%rax        # 202ff0 <__cxa_finalize@plt+0x2024d0>
     bcf:	48 85 c0             	test   %rax,%rax
     bd2:	74 0c                	je     be0 <__cxa_finalize@plt+0xc0>
     bd4:	5d                   	pop    %rbp
     bd5:	ff e0                	jmpq   *%rax
     bd7:	66 0f 1f 84 00 00 00 	nopw   0x0(%rax,%rax,1)
     bde:	00 00 
     be0:	5d                   	pop    %rbp
     be1:	c3                   	retq   
     be2:	0f 1f 40 00          	nopl   0x0(%rax)
     be6:	66 2e 0f 1f 84 00 00 	nopw   %cs:0x0(%rax,%rax,1)
     bed:	00 00 00 
     bf0:	80 3d b1 24 20 00 00 	cmpb   $0x0,0x2024b1(%rip)        # 2030a8 <stderr@@GLIBC_2.2.5+0x8>
     bf7:	75 2f                	jne    c28 <__cxa_finalize@plt+0x108>
     bf9:	48 83 3d f7 23 20 00 	cmpq   $0x0,0x2023f7(%rip)        # 202ff8 <__cxa_finalize@plt+0x2024d8>
     c00:	00 
     c01:	55                   	push   %rbp
     c02:	48 89 e5             	mov    %rsp,%rbp
     c05:	74 0c                	je     c13 <__cxa_finalize@plt+0xf3>
     c07:	48 8b 3d fa 23 20 00 	mov    0x2023fa(%rip),%rdi        # 203008 <__cxa_finalize@plt+0x2024e8>
     c0e:	e8 0d ff ff ff       	callq  b20 <__cxa_finalize@plt>
     c13:	e8 48 ff ff ff       	callq  b60 <__cxa_finalize@plt+0x40>
     c18:	c6 05 89 24 20 00 01 	movb   $0x1,0x202489(%rip)        # 2030a8 <stderr@@GLIBC_2.2.5+0x8>
     c1f:	5d                   	pop    %rbp
     c20:	c3                   	retq   
     c21:	0f 1f 80 00 00 00 00 	nopl   0x0(%rax)
     c28:	f3 c3                	repz retq 
     c2a:	66 0f 1f 44 00 00    	nopw   0x0(%rax,%rax,1)
     c30:	55                   	push   %rbp
     c31:	48 89 e5             	mov    %rsp,%rbp
     c34:	5d                   	pop    %rbp
     c35:	e9 66 ff ff ff       	jmpq   ba0 <__cxa_finalize@plt+0x80>
     c3a:	55                   	push   %rbp
     c3b:	48 89 e5             	mov    %rsp,%rbp
     c3e:	48 83 ec 20          	sub    $0x20,%rsp
     c42:	48 c7 45 e8 00 00 00 	movq   $0x50000000,-0x18(%rbp)
     c49:	50 
     c4a:	48 8b 45 e8          	mov    -0x18(%rbp),%rax
     c4e:	48 05 00 10 00 00    	add    $0x1000,%rax
     c54:	48 89 c7             	mov    %rax,%rdi
     c57:	e8 84 fe ff ff       	callq  ae0 <malloc@plt>
     c5c:	48 89 45 e0          	mov    %rax,-0x20(%rbp)
     c60:	48 83 7d e0 00       	cmpq   $0x0,-0x20(%rbp)
     c65:	75 05                	jne    c6c <__cxa_finalize@plt+0x14c>
     c67:	e8 b4 fd ff ff       	callq  a20 <abort@plt>
     c6c:	48 8b 45 e0          	mov    -0x20(%rbp),%rax
     c70:	48 05 00 10 00 00    	add    $0x1000,%rax
     c76:	48 25 00 f0 ff ff    	and    $0xfffffffffffff000,%rax
     c7c:	48 89 45 f8          	mov    %rax,-0x8(%rbp)
     c80:	48 8b 45 e0          	mov    -0x20(%rbp),%rax
     c84:	48 89 05 5d 24 20 00 	mov    %rax,0x20245d(%rip)        # 2030e8 <stderr@@GLIBC_2.2.5+0x48>
     c8b:	48 8b 45 f8          	mov    -0x8(%rbp),%rax
     c8f:	48 89 05 5a 24 20 00 	mov    %rax,0x20245a(%rip)        # 2030f0 <stderr@@GLIBC_2.2.5+0x50>
     c96:	c7 45 f4 00 00 00 00 	movl   $0x0,-0xc(%rbp)
     c9d:	eb 75                	jmp    d14 <__cxa_finalize@plt+0x1f4>
     c9f:	48 8b 45 f8          	mov    -0x8(%rbp),%rax
     ca3:	ba 07 00 00 00       	mov    $0x7,%edx
     ca8:	be 00 40 00 00       	mov    $0x4000,%esi
     cad:	48 89 c7             	mov    %rax,%rdi
     cb0:	e8 3b fe ff ff       	callq  af0 <mprotect@plt>
     cb5:	85 c0                	test   %eax,%eax
     cb7:	79 05                	jns    cbe <__cxa_finalize@plt+0x19e>
     cb9:	e8 62 fd ff ff       	callq  a20 <abort@plt>
     cbe:	48 8b 45 f8          	mov    -0x8(%rbp),%rax
     cc2:	48 05 00 40 00 00    	add    $0x4000,%rax
     cc8:	ba 07 00 00 00       	mov    $0x7,%edx
     ccd:	be 00 40 00 00       	mov    $0x4000,%esi
     cd2:	48 89 c7             	mov    %rax,%rdi
     cd5:	e8 16 fe ff ff       	callq  af0 <mprotect@plt>
     cda:	85 c0                	test   %eax,%eax
     cdc:	79 05                	jns    ce3 <__cxa_finalize@plt+0x1c3>
     cde:	e8 3d fd ff ff       	callq  a20 <abort@plt>
     ce3:	48 8b 45 f8          	mov    -0x8(%rbp),%rax
     ce7:	48 05 00 80 00 00    	add    $0x8000,%rax
     ced:	ba 03 00 00 00       	mov    $0x3,%edx
     cf2:	be 00 00 00 04       	mov    $0x4000000,%esi
     cf7:	48 89 c7             	mov    %rax,%rdi
     cfa:	e8 f1 fd ff ff       	callq  af0 <mprotect@plt>
     cff:	85 c0                	test   %eax,%eax
     d01:	79 05                	jns    d08 <__cxa_finalize@plt+0x1e8>
     d03:	e8 18 fd ff ff       	callq  a20 <abort@plt>
     d08:	48 81 45 f8 00 00 00 	addq   $0x8000000,-0x8(%rbp)
     d0f:	08 
     d10:	83 45 f4 01          	addl   $0x1,-0xc(%rbp)
     d14:	8b 45 f4             	mov    -0xc(%rbp),%eax
     d17:	83 f8 09             	cmp    $0x9,%eax
     d1a:	76 83                	jbe    c9f <__cxa_finalize@plt+0x17f>
     d1c:	48 8b 05 c5 23 20 00 	mov    0x2023c5(%rip),%rax        # 2030e8 <stderr@@GLIBC_2.2.5+0x48>
     d23:	48 25 00 f0 ff ff    	and    $0xfffffffffffff000,%rax
     d29:	ba 01 00 00 00       	mov    $0x1,%edx
     d2e:	be 00 10 00 00       	mov    $0x1000,%esi
     d33:	48 89 c7             	mov    %rax,%rdi
     d36:	e8 b5 fd ff ff       	callq  af0 <mprotect@plt>
     d3b:	85 c0                	test   %eax,%eax
     d3d:	79 05                	jns    d44 <__cxa_finalize@plt+0x224>
     d3f:	e8 dc fc ff ff       	callq  a20 <abort@plt>
     d44:	90                   	nop
     d45:	c9                   	leaveq 
     d46:	c3                   	retq   
     d47:	55                   	push   %rbp
     d48:	48 89 e5             	mov    %rsp,%rbp
     d4b:	48 8b 05 96 23 20 00 	mov    0x202396(%rip),%rax        # 2030e8 <stderr@@GLIBC_2.2.5+0x48>
     d52:	48 25 00 f0 ff ff    	and    $0xfffffffffffff000,%rax
     d58:	ba 03 00 00 00       	mov    $0x3,%edx
     d5d:	be 00 10 00 00       	mov    $0x1000,%esi
     d62:	48 89 c7             	mov    %rax,%rdi
     d65:	e8 86 fd ff ff       	callq  af0 <mprotect@plt>
     d6a:	85 c0                	test   %eax,%eax
     d6c:	79 05                	jns    d73 <__cxa_finalize@plt+0x253>
     d6e:	e8 ad fc ff ff       	callq  a20 <abort@plt>
     d73:	48 8b 05 6e 23 20 00 	mov    0x20236e(%rip),%rax        # 2030e8 <stderr@@GLIBC_2.2.5+0x48>
     d7a:	48 89 c7             	mov    %rax,%rdi
     d7d:	e8 7e fc ff ff       	callq  a00 <free@plt>
     d82:	90                   	nop
     d83:	5d                   	pop    %rbp
     d84:	c3                   	retq   
     d85:	55                   	push   %rbp
     d86:	48 89 e5             	mov    %rsp,%rbp
     d89:	48 83 ec 20          	sub    $0x20,%rsp
     d8d:	48 89 7d e8          	mov    %rdi,-0x18(%rbp)
     d91:	c7 45 fc 00 00 00 00 	movl   $0x0,-0x4(%rbp)
     d98:	48 8b 45 e8          	mov    -0x18(%rbp),%rax
     d9c:	48 89 c6             	mov    %rax,%rsi
     d9f:	48 8d 3d 6a 17 00 00 	lea    0x176a(%rip),%rdi        # 2510 <__cxa_finalize@plt+0x19f0>
     da6:	b8 00 00 00 00       	mov    $0x0,%eax
     dab:	e8 d0 fc ff ff       	callq  a80 <printf@plt>
     db0:	48 8d 45 fc          	lea    -0x4(%rbp),%rax
     db4:	48 89 c6             	mov    %rax,%rsi
     db7:	48 8d 3d 55 17 00 00 	lea    0x1755(%rip),%rdi        # 2513 <__cxa_finalize@plt+0x19f3>
     dbe:	b8 00 00 00 00       	mov    $0x0,%eax
     dc3:	e8 48 fd ff ff       	callq  b10 <__isoc99_scanf@plt>
     dc8:	e8 f3 fc ff ff       	callq  ac0 <getchar@plt>
     dcd:	8b 45 fc             	mov    -0x4(%rbp),%eax
     dd0:	c9                   	leaveq 
     dd1:	c3                   	retq   
     dd2:	55                   	push   %rbp
     dd3:	48 89 e5             	mov    %rsp,%rbp
     dd6:	48 83 ec 20          	sub    $0x20,%rsp
     dda:	48 89 7d e8          	mov    %rdi,-0x18(%rbp)
     dde:	48 8b 45 e8          	mov    -0x18(%rbp),%rax
     de2:	48 89 c6             	mov    %rax,%rsi
     de5:	48 8d 3d 24 17 00 00 	lea    0x1724(%rip),%rdi        # 2510 <__cxa_finalize@plt+0x19f0>
     dec:	b8 00 00 00 00       	mov    $0x0,%eax
     df1:	e8 8a fc ff ff       	callq  a80 <printf@plt>
     df6:	e8 c5 fc ff ff       	callq  ac0 <getchar@plt>
     dfb:	88 45 ff             	mov    %al,-0x1(%rbp)
     dfe:	e8 bd fc ff ff       	callq  ac0 <getchar@plt>
     e03:	0f b6 45 ff          	movzbl -0x1(%rbp),%eax
     e07:	c9                   	leaveq 
     e08:	c3                   	retq   
     e09:	55                   	push   %rbp
     e0a:	48 89 e5             	mov    %rsp,%rbp
     e0d:	48 83 ec 20          	sub    $0x20,%rsp
     e11:	48 89 7d e8          	mov    %rdi,-0x18(%rbp)
     e15:	89 75 e4             	mov    %esi,-0x1c(%rbp)
     e18:	48 83 7d e8 00       	cmpq   $0x0,-0x18(%rbp)
     e1d:	0f 84 9c 00 00 00    	je     ebf <__cxa_finalize@plt+0x39f>
     e23:	83 7d e4 00          	cmpl   $0x0,-0x1c(%rbp)
     e27:	0f 88 92 00 00 00    	js     ebf <__cxa_finalize@plt+0x39f>
     e2d:	8b 45 e4             	mov    -0x1c(%rbp),%eax
     e30:	3d 00 01 00 00       	cmp    $0x100,%eax
     e35:	0f 87 84 00 00 00    	ja     ebf <__cxa_finalize@plt+0x39f>
     e3b:	48 c7 45 f8 00 00 00 	movq   $0x0,-0x8(%rbp)
     e42:	00 
     e43:	48 8d 35 cc 16 00 00 	lea    0x16cc(%rip),%rsi        # 2516 <__cxa_finalize@plt+0x19f6>
     e4a:	48 8d 3d c8 16 00 00 	lea    0x16c8(%rip),%rdi        # 2519 <__cxa_finalize@plt+0x19f9>
     e51:	e8 aa fc ff ff       	callq  b00 <fopen@plt>
     e56:	48 89 45 f8          	mov    %rax,-0x8(%rbp)
     e5a:	48 83 7d f8 00       	cmpq   $0x0,-0x8(%rbp)
     e5f:	75 17                	jne    e78 <__cxa_finalize@plt+0x358>
     e61:	48 8d 35 ae 16 00 00 	lea    0x16ae(%rip),%rsi        # 2516 <__cxa_finalize@plt+0x19f6>
     e68:	48 8d 3d b7 16 00 00 	lea    0x16b7(%rip),%rdi        # 2526 <__cxa_finalize@plt+0x1a06>
     e6f:	e8 8c fc ff ff       	callq  b00 <fopen@plt>
     e74:	48 89 45 f8          	mov    %rax,-0x8(%rbp)
     e78:	48 83 7d f8 00       	cmpq   $0x0,-0x8(%rbp)
     e7d:	75 05                	jne    e84 <__cxa_finalize@plt+0x364>
     e7f:	e8 9c fb ff ff       	callq  a20 <abort@plt>
     e84:	8b 45 e4             	mov    -0x1c(%rbp),%eax
     e87:	48 63 d0             	movslq %eax,%rdx
     e8a:	48 8b 4d f8          	mov    -0x8(%rbp),%rcx
     e8e:	48 8b 45 e8          	mov    -0x18(%rbp),%rax
     e92:	be 01 00 00 00       	mov    $0x1,%esi
     e97:	48 89 c7             	mov    %rax,%rdi
     e9a:	e8 a1 fb ff ff       	callq  a40 <fread@plt>
     e9f:	48 89 45 f0          	mov    %rax,-0x10(%rbp)
     ea3:	48 8b 45 f8          	mov    -0x8(%rbp),%rax
     ea7:	48 89 c7             	mov    %rax,%rdi
     eaa:	e8 b1 fb ff ff       	callq  a60 <fclose@plt>
     eaf:	8b 45 e4             	mov    -0x1c(%rbp),%eax
     eb2:	48 98                	cltq   
     eb4:	48 39 45 f0          	cmp    %rax,-0x10(%rbp)
     eb8:	74 06                	je     ec0 <__cxa_finalize@plt+0x3a0>
     eba:	e8 61 fb ff ff       	callq  a20 <abort@plt>
     ebf:	90                   	nop
     ec0:	c9                   	leaveq 
     ec1:	c3                   	retq   
     ec2:	55                   	push   %rbp
     ec3:	48 89 e5             	mov    %rsp,%rbp
     ec6:	48 89 7d f8          	mov    %rdi,-0x8(%rbp)
     eca:	48 83 7d f8 00       	cmpq   $0x0,-0x8(%rbp)
     ecf:	5d                   	pop    %rbp
     ed0:	c3                   	retq   
     ed1:	55                   	push   %rbp
     ed2:	48 89 e5             	mov    %rsp,%rbp
     ed5:	48 89 7d e8          	mov    %rdi,-0x18(%rbp)
     ed9:	48 89 75 e0          	mov    %rsi,-0x20(%rbp)
     edd:	48 8b 45 e8          	mov    -0x18(%rbp),%rax
     ee1:	48 8b 00             	mov    (%rax),%rax
     ee4:	48 89 45 f8          	mov    %rax,-0x8(%rbp)
     ee8:	48 8b 45 e0          	mov    -0x20(%rbp),%rax
     eec:	48 8b 10             	mov    (%rax),%rdx
     eef:	48 8b 45 e8          	mov    -0x18(%rbp),%rax
     ef3:	48 89 10             	mov    %rdx,(%rax)
     ef6:	48 8b 45 e0          	mov    -0x20(%rbp),%rax
     efa:	48 8b 55 f8          	mov    -0x8(%rbp),%rdx
     efe:	48 89 10             	mov    %rdx,(%rax)
     f01:	90                   	nop
     f02:	5d                   	pop    %rbp
     f03:	c3                   	retq   
     f04:	55                   	push   %rbp
     f05:	48 89 e5             	mov    %rsp,%rbp
     f08:	48 83 ec 20          	sub    $0x20,%rsp
     f0c:	48 89 7d e8          	mov    %rdi,-0x18(%rbp)
     f10:	89 75 e4             	mov    %esi,-0x1c(%rbp)
     f13:	c7 45 fc 00 00 00 00 	movl   $0x0,-0x4(%rbp)
     f1a:	e9 8d 00 00 00       	jmpq   fac <__cxa_finalize@plt+0x48c>
     f1f:	c7 45 f8 00 00 00 00 	movl   $0x0,-0x8(%rbp)
     f26:	eb 72                	jmp    f9a <__cxa_finalize@plt+0x47a>
     f28:	8b 45 f8             	mov    -0x8(%rbp),%eax
     f2b:	48 98                	cltq   
     f2d:	48 8d 14 c5 00 00 00 	lea    0x0(,%rax,8),%rdx
     f34:	00 
     f35:	48 8b 45 e8          	mov    -0x18(%rbp),%rax
     f39:	48 01 d0             	add    %rdx,%rax
     f3c:	48 8b 10             	mov    (%rax),%rdx
     f3f:	8b 45 f8             	mov    -0x8(%rbp),%eax
     f42:	48 98                	cltq   
     f44:	48 83 c0 01          	add    $0x1,%rax
     f48:	48 8d 0c c5 00 00 00 	lea    0x0(,%rax,8),%rcx
     f4f:	00 
     f50:	48 8b 45 e8          	mov    -0x18(%rbp),%rax
     f54:	48 01 c8             	add    %rcx,%rax
     f57:	48 8b 00             	mov    (%rax),%rax
     f5a:	48 39 c2             	cmp    %rax,%rdx
     f5d:	76 37                	jbe    f96 <__cxa_finalize@plt+0x476>
     f5f:	8b 45 f8             	mov    -0x8(%rbp),%eax
     f62:	48 98                	cltq   
     f64:	48 83 c0 01          	add    $0x1,%rax
     f68:	48 8d 14 c5 00 00 00 	lea    0x0(,%rax,8),%rdx
     f6f:	00 
     f70:	48 8b 45 e8          	mov    -0x18(%rbp),%rax
     f74:	48 01 c2             	add    %rax,%rdx
     f77:	8b 45 f8             	mov    -0x8(%rbp),%eax
     f7a:	48 98                	cltq   
     f7c:	48 8d 0c c5 00 00 00 	lea    0x0(,%rax,8),%rcx
     f83:	00 
     f84:	48 8b 45 e8          	mov    -0x18(%rbp),%rax
     f88:	48 01 c8             	add    %rcx,%rax
     f8b:	48 89 d6             	mov    %rdx,%rsi
     f8e:	48 89 c7             	mov    %rax,%rdi
     f91:	e8 3b ff ff ff       	callq  ed1 <__cxa_finalize@plt+0x3b1>
     f96:	83 45 f8 01          	addl   $0x1,-0x8(%rbp)
     f9a:	8b 45 e4             	mov    -0x1c(%rbp),%eax
     f9d:	2b 45 fc             	sub    -0x4(%rbp),%eax
     fa0:	83 e8 01             	sub    $0x1,%eax
     fa3:	39 45 f8             	cmp    %eax,-0x8(%rbp)
     fa6:	7c 80                	jl     f28 <__cxa_finalize@plt+0x408>
     fa8:	83 45 fc 01          	addl   $0x1,-0x4(%rbp)
     fac:	8b 45 e4             	mov    -0x1c(%rbp),%eax
     faf:	83 e8 01             	sub    $0x1,%eax
     fb2:	39 45 fc             	cmp    %eax,-0x4(%rbp)
     fb5:	0f 8c 64 ff ff ff    	jl     f1f <__cxa_finalize@plt+0x3ff>
     fbb:	90                   	nop
     fbc:	c9                   	leaveq 
     fbd:	c3                   	retq   
     fbe:	55                   	push   %rbp
     fbf:	48 89 e5             	mov    %rsp,%rbp
     fc2:	89 f8                	mov    %edi,%eax
     fc4:	88 45 fc             	mov    %al,-0x4(%rbp)
     fc7:	80 7d fc 00          	cmpb   $0x0,-0x4(%rbp)
     fcb:	78 08                	js     fd5 <__cxa_finalize@plt+0x4b5>
     fcd:	0f b6 45 fc          	movzbl -0x4(%rbp),%eax
     fd1:	3c 09                	cmp    $0x9,%al
     fd3:	76 07                	jbe    fdc <__cxa_finalize@plt+0x4bc>
     fd5:	b8 00 00 00 00       	mov    $0x0,%eax
     fda:	eb 16                	jmp    ff2 <__cxa_finalize@plt+0x4d2>
     fdc:	48 0f be 45 fc       	movsbq -0x4(%rbp),%rax
     fe1:	48 c1 e0 1b          	shl    $0x1b,%rax
     fe5:	48 89 c2             	mov    %rax,%rdx
     fe8:	48 8b 05 01 21 20 00 	mov    0x202101(%rip),%rax        # 2030f0 <stderr@@GLIBC_2.2.5+0x50>
     fef:	48 01 d0             	add    %rdx,%rax
     ff2:	5d                   	pop    %rbp
     ff3:	c3                   	retq   
     ff4:	55                   	push   %rbp
     ff5:	48 89 e5             	mov    %rsp,%rbp
     ff8:	89 f8                	mov    %edi,%eax
     ffa:	88 45 fc             	mov    %al,-0x4(%rbp)
     ffd:	80 7d fc 00          	cmpb   $0x0,-0x4(%rbp)
    1001:	78 08                	js     100b <__cxa_finalize@plt+0x4eb>
    1003:	0f b6 45 fc          	movzbl -0x4(%rbp),%eax
    1007:	3c 09                	cmp    $0x9,%al
    1009:	76 07                	jbe    1012 <__cxa_finalize@plt+0x4f2>
    100b:	b8 00 00 00 00       	mov    $0x0,%eax
    1010:	eb 1c                	jmp    102e <__cxa_finalize@plt+0x50e>
    1012:	48 0f be 45 fc       	movsbq -0x4(%rbp),%rax
    1017:	48 c1 e0 1b          	shl    $0x1b,%rax
    101b:	48 89 c2             	mov    %rax,%rdx
    101e:	48 8b 05 cb 20 20 00 	mov    0x2020cb(%rip),%rax        # 2030f0 <stderr@@GLIBC_2.2.5+0x50>
    1025:	48 01 d0             	add    %rdx,%rax
    1028:	48 05 00 40 00 00    	add    $0x4000,%rax
    102e:	5d                   	pop    %rbp
    102f:	c3                   	retq   
    1030:	55                   	push   %rbp
    1031:	48 89 e5             	mov    %rsp,%rbp
    1034:	89 f8                	mov    %edi,%eax
    1036:	88 45 fc             	mov    %al,-0x4(%rbp)
    1039:	80 7d fc 00          	cmpb   $0x0,-0x4(%rbp)
    103d:	78 08                	js     1047 <__cxa_finalize@plt+0x527>
    103f:	0f b6 45 fc          	movzbl -0x4(%rbp),%eax
    1043:	3c 09                	cmp    $0x9,%al
    1045:	76 07                	jbe    104e <__cxa_finalize@plt+0x52e>
    1047:	b8 00 00 00 00       	mov    $0x0,%eax
    104c:	eb 1c                	jmp    106a <__cxa_finalize@plt+0x54a>
    104e:	48 0f be 45 fc       	movsbq -0x4(%rbp),%rax
    1053:	48 c1 e0 1b          	shl    $0x1b,%rax
    1057:	48 89 c2             	mov    %rax,%rdx
    105a:	48 8b 05 8f 20 20 00 	mov    0x20208f(%rip),%rax        # 2030f0 <stderr@@GLIBC_2.2.5+0x50>
    1061:	48 01 d0             	add    %rdx,%rax
    1064:	48 05 00 80 00 00    	add    $0x8000,%rax
    106a:	5d                   	pop    %rbp
    106b:	c3                   	retq   
    106c:	55                   	push   %rbp
    106d:	48 89 e5             	mov    %rsp,%rbp
    1070:	48 83 ec 10          	sub    $0x10,%rsp
    1074:	48 89 7d 88          	mov    %rdi,-0x78(%rbp)
    1078:	89 75 84             	mov    %esi,-0x7c(%rbp)
    107b:	89 55 80             	mov    %edx,-0x80(%rbp)
    107e:	89 8d 7c ff ff ff    	mov    %ecx,-0x84(%rbp)
    1084:	48 83 7d 88 00       	cmpq   $0x0,-0x78(%rbp)
    1089:	75 0a                	jne    1095 <__cxa_finalize@plt+0x575>
    108b:	b8 00 00 00 00       	mov    $0x0,%eax
    1090:	e9 f9 01 00 00       	jmpq   128e <__cxa_finalize@plt+0x76e>
    1095:	83 7d 84 00          	cmpl   $0x0,-0x7c(%rbp)
    1099:	78 06                	js     10a1 <__cxa_finalize@plt+0x581>
    109b:	83 7d 80 00          	cmpl   $0x0,-0x80(%rbp)
    109f:	79 0a                	jns    10ab <__cxa_finalize@plt+0x58b>
    10a1:	b8 00 00 00 00       	mov    $0x0,%eax
    10a6:	e9 e3 01 00 00       	jmpq   128e <__cxa_finalize@plt+0x76e>
    10ab:	8b 55 84             	mov    -0x7c(%rbp),%edx
    10ae:	8b 45 80             	mov    -0x80(%rbp),%eax
    10b1:	01 d0                	add    %edx,%eax
    10b3:	48 98                	cltq   
    10b5:	48 89 45 e8          	mov    %rax,-0x18(%rbp)
    10b9:	48 83 7d e8 00       	cmpq   $0x0,-0x18(%rbp)
    10be:	78 0c                	js     10cc <__cxa_finalize@plt+0x5ac>
    10c0:	48 8b 45 e8          	mov    -0x18(%rbp),%rax
    10c4:	48 3d d8 7f 00 00    	cmp    $0x7fd8,%rax
    10ca:	76 0a                	jbe    10d6 <__cxa_finalize@plt+0x5b6>
    10cc:	b8 00 00 00 00       	mov    $0x0,%eax
    10d1:	e9 b8 01 00 00       	jmpq   128e <__cxa_finalize@plt+0x76e>
    10d6:	48 8b 45 88          	mov    -0x78(%rbp),%rax
    10da:	48 8b 40 10          	mov    0x10(%rax),%rax
    10de:	8b 55 84             	mov    -0x7c(%rbp),%edx
    10e1:	48 63 d2             	movslq %edx,%rdx
    10e4:	48 c1 e2 0c          	shl    $0xc,%rdx
    10e8:	48 01 d0             	add    %rdx,%rax
    10eb:	48 89 45 e0          	mov    %rax,-0x20(%rbp)
    10ef:	48 8b 45 88          	mov    -0x78(%rbp),%rax
    10f3:	48 8b 40 10          	mov    0x10(%rax),%rax
    10f7:	48 05 00 80 fd 07    	add    $0x7fd8000,%rax
    10fd:	48 89 45 f8          	mov    %rax,-0x8(%rbp)
    1101:	48 8b 45 f8          	mov    -0x8(%rbp),%rax
    1105:	48 89 45 d8          	mov    %rax,-0x28(%rbp)
    1109:	c7 45 f4 00 00 00 00 	movl   $0x0,-0xc(%rbp)
    1110:	e9 69 01 00 00       	jmpq   127e <__cxa_finalize@plt+0x75e>
    1115:	8b 45 f4             	mov    -0xc(%rbp),%eax
    1118:	48 98                	cltq   
    111a:	48 c1 e0 0c          	shl    $0xc,%rax
    111e:	48 89 c2             	mov    %rax,%rdx
    1121:	48 8b 45 e0          	mov    -0x20(%rbp),%rax
    1125:	48 01 d0             	add    %rdx,%rax
    1128:	48 89 45 c8          	mov    %rax,-0x38(%rbp)
    112c:	48 c7 45 c0 00 10 00 	movq   $0x1000,-0x40(%rbp)
    1133:	00 
    1134:	8b 85 7c ff ff ff    	mov    -0x84(%rbp),%eax
    113a:	89 45 bc             	mov    %eax,-0x44(%rbp)
    113d:	8b 45 bc             	mov    -0x44(%rbp),%eax
    1140:	89 45 b8             	mov    %eax,-0x48(%rbp)
    1143:	48 83 7d c0 03       	cmpq   $0x3,-0x40(%rbp)
    1148:	76 71                	jbe    11bb <__cxa_finalize@plt+0x69b>
    114a:	48 8b 45 c8          	mov    -0x38(%rbp),%rax
    114e:	48 89 45 b0          	mov    %rax,-0x50(%rbp)
    1152:	48 8b 45 c0          	mov    -0x40(%rbp),%rax
    1156:	48 c1 e8 02          	shr    $0x2,%rax
    115a:	48 89 45 a8          	mov    %rax,-0x58(%rbp)
    115e:	48 8b 45 b0          	mov    -0x50(%rbp),%rax
    1162:	48 8d 50 04          	lea    0x4(%rax),%rdx
    1166:	48 89 55 b0          	mov    %rdx,-0x50(%rbp)
    116a:	8b 00                	mov    (%rax),%eax
    116c:	89 45 a4             	mov    %eax,-0x5c(%rbp)
    116f:	8b 45 a4             	mov    -0x5c(%rbp),%eax
    1172:	69 c0 51 2d 9e cc    	imul   $0xcc9e2d51,%eax,%eax
    1178:	89 45 a4             	mov    %eax,-0x5c(%rbp)
    117b:	c1 45 a4 0f          	roll   $0xf,-0x5c(%rbp)
    117f:	8b 45 a4             	mov    -0x5c(%rbp),%eax
    1182:	69 c0 93 35 87 1b    	imul   $0x1b873593,%eax,%eax
    1188:	89 45 a4             	mov    %eax,-0x5c(%rbp)
    118b:	8b 45 a4             	mov    -0x5c(%rbp),%eax
    118e:	31 45 b8             	xor    %eax,-0x48(%rbp)
    1191:	c1 45 b8 0d          	roll   $0xd,-0x48(%rbp)
    1195:	8b 55 b8             	mov    -0x48(%rbp),%edx
    1198:	89 d0                	mov    %edx,%eax
    119a:	c1 e0 02             	shl    $0x2,%eax
    119d:	01 d0                	add    %edx,%eax
    119f:	2d 9c 94 ab 19       	sub    $0x19ab949c,%eax
    11a4:	89 45 b8             	mov    %eax,-0x48(%rbp)
    11a7:	48 83 6d a8 01       	subq   $0x1,-0x58(%rbp)
    11ac:	48 83 7d a8 00       	cmpq   $0x0,-0x58(%rbp)
    11b1:	75 ab                	jne    115e <__cxa_finalize@plt+0x63e>
    11b3:	48 8b 45 b0          	mov    -0x50(%rbp),%rax
    11b7:	48 89 45 c8          	mov    %rax,-0x38(%rbp)
    11bb:	48 8b 45 c0          	mov    -0x40(%rbp),%rax
    11bf:	83 e0 03             	and    $0x3,%eax
    11c2:	48 85 c0             	test   %rax,%rax
    11c5:	74 65                	je     122c <__cxa_finalize@plt+0x70c>
    11c7:	48 8b 45 c0          	mov    -0x40(%rbp),%rax
    11cb:	83 e0 03             	and    $0x3,%eax
    11ce:	48 89 45 98          	mov    %rax,-0x68(%rbp)
    11d2:	c7 45 94 00 00 00 00 	movl   $0x0,-0x6c(%rbp)
    11d9:	48 8b 45 98          	mov    -0x68(%rbp),%rax
    11dd:	48 83 e8 01          	sub    $0x1,%rax
    11e1:	48 01 45 c8          	add    %rax,-0x38(%rbp)
    11e5:	c1 65 94 08          	shll   $0x8,-0x6c(%rbp)
    11e9:	48 8b 45 c8          	mov    -0x38(%rbp),%rax
    11ed:	48 8d 50 ff          	lea    -0x1(%rax),%rdx
    11f1:	48 89 55 c8          	mov    %rdx,-0x38(%rbp)
    11f5:	0f b6 00             	movzbl (%rax),%eax
    11f8:	0f b6 c0             	movzbl %al,%eax
    11fb:	09 45 94             	or     %eax,-0x6c(%rbp)
    11fe:	48 83 6d 98 01       	subq   $0x1,-0x68(%rbp)
    1203:	48 83 7d 98 00       	cmpq   $0x0,-0x68(%rbp)
    1208:	75 db                	jne    11e5 <__cxa_finalize@plt+0x6c5>
    120a:	8b 45 94             	mov    -0x6c(%rbp),%eax
    120d:	69 c0 51 2d 9e cc    	imul   $0xcc9e2d51,%eax,%eax
    1213:	89 45 94             	mov    %eax,-0x6c(%rbp)
    1216:	c1 45 94 0f          	roll   $0xf,-0x6c(%rbp)
    121a:	8b 45 94             	mov    -0x6c(%rbp),%eax
    121d:	69 c0 93 35 87 1b    	imul   $0x1b873593,%eax,%eax
    1223:	89 45 94             	mov    %eax,-0x6c(%rbp)
    1226:	8b 45 94             	mov    -0x6c(%rbp),%eax
    1229:	31 45 b8             	xor    %eax,-0x48(%rbp)
    122c:	48 8b 45 c0          	mov    -0x40(%rbp),%rax
    1230:	31 45 b8             	xor    %eax,-0x48(%rbp)
    1233:	8b 45 b8             	mov    -0x48(%rbp),%eax
    1236:	c1 e8 10             	shr    $0x10,%eax
    1239:	31 45 b8             	xor    %eax,-0x48(%rbp)
    123c:	8b 45 b8             	mov    -0x48(%rbp),%eax
    123f:	69 c0 6b ca eb 85    	imul   $0x85ebca6b,%eax,%eax
    1245:	89 45 b8             	mov    %eax,-0x48(%rbp)
    1248:	8b 45 b8             	mov    -0x48(%rbp),%eax
    124b:	c1 e8 0d             	shr    $0xd,%eax
    124e:	31 45 b8             	xor    %eax,-0x48(%rbp)
    1251:	8b 45 b8             	mov    -0x48(%rbp),%eax
    1254:	69 c0 35 ae b2 c2    	imul   $0xc2b2ae35,%eax,%eax
    125a:	89 45 b8             	mov    %eax,-0x48(%rbp)
    125d:	8b 45 b8             	mov    -0x48(%rbp),%eax
    1260:	c1 e8 10             	shr    $0x10,%eax
    1263:	31 45 b8             	xor    %eax,-0x48(%rbp)
    1266:	8b 45 b8             	mov    -0x48(%rbp),%eax
    1269:	89 45 d4             	mov    %eax,-0x2c(%rbp)
    126c:	48 8b 45 f8          	mov    -0x8(%rbp),%rax
    1270:	8b 55 d4             	mov    -0x2c(%rbp),%edx
    1273:	89 10                	mov    %edx,(%rax)
    1275:	48 83 45 f8 04       	addq   $0x4,-0x8(%rbp)
    127a:	83 45 f4 01          	addl   $0x1,-0xc(%rbp)
    127e:	8b 45 f4             	mov    -0xc(%rbp),%eax
    1281:	3b 45 80             	cmp    -0x80(%rbp),%eax
    1284:	0f 8c 8b fe ff ff    	jl     1115 <__cxa_finalize@plt+0x5f5>
    128a:	48 8b 45 d8          	mov    -0x28(%rbp),%rax
    128e:	c9                   	leaveq 
    128f:	c3                   	retq   
    1290:	55                   	push   %rbp
    1291:	48 89 e5             	mov    %rsp,%rbp
    1294:	48 89 7d e8          	mov    %rdi,-0x18(%rbp)
    1298:	89 75 e4             	mov    %esi,-0x1c(%rbp)
    129b:	48 83 7d e8 00       	cmpq   $0x0,-0x18(%rbp)
    12a0:	75 07                	jne    12a9 <__cxa_finalize@plt+0x789>
    12a2:	b8 00 00 00 00       	mov    $0x0,%eax
    12a7:	eb 6d                	jmp    1316 <__cxa_finalize@plt+0x7f6>
    12a9:	83 7d e4 00          	cmpl   $0x0,-0x1c(%rbp)
    12ad:	78 0a                	js     12b9 <__cxa_finalize@plt+0x799>
    12af:	8b 45 e4             	mov    -0x1c(%rbp),%eax
    12b2:	3d f7 7f 00 00       	cmp    $0x7ff7,%eax
    12b7:	76 07                	jbe    12c0 <__cxa_finalize@plt+0x7a0>
    12b9:	b8 00 00 00 00       	mov    $0x0,%eax
    12be:	eb 56                	jmp    1316 <__cxa_finalize@plt+0x7f6>
    12c0:	c7 45 fc 00 00 00 00 	movl   $0x0,-0x4(%rbp)
    12c7:	c7 45 f4 e8 03 00 00 	movl   $0x3e8,-0xc(%rbp)
    12ce:	c7 45 f8 00 00 00 00 	movl   $0x0,-0x8(%rbp)
    12d5:	eb 28                	jmp    12ff <__cxa_finalize@plt+0x7df>
    12d7:	48 8b 55 e8          	mov    -0x18(%rbp),%rdx
    12db:	8b 45 f8             	mov    -0x8(%rbp),%eax
    12de:	48 98                	cltq   
    12e0:	0f b6 44 02 18       	movzbl 0x18(%rdx,%rax,1),%eax
    12e5:	84 c0                	test   %al,%al
    12e7:	75 12                	jne    12fb <__cxa_finalize@plt+0x7db>
    12e9:	48 8b 55 e8          	mov    -0x18(%rbp),%rdx
    12ed:	8b 45 f8             	mov    -0x8(%rbp),%eax
    12f0:	48 98                	cltq   
    12f2:	c6 44 02 18 01       	movb   $0x1,0x18(%rdx,%rax,1)
    12f7:	83 45 fc 01          	addl   $0x1,-0x4(%rbp)
    12fb:	83 45 f8 01          	addl   $0x1,-0x8(%rbp)
    12ff:	8b 45 f8             	mov    -0x8(%rbp),%eax
    1302:	3d f7 7f 00 00       	cmp    $0x7ff7,%eax
    1307:	77 08                	ja     1311 <__cxa_finalize@plt+0x7f1>
    1309:	8b 45 fc             	mov    -0x4(%rbp),%eax
    130c:	3b 45 f4             	cmp    -0xc(%rbp),%eax
    130f:	76 c6                	jbe    12d7 <__cxa_finalize@plt+0x7b7>
    1311:	b8 00 00 00 00       	mov    $0x0,%eax
    1316:	5d                   	pop    %rbp
    1317:	c3                   	retq   
    1318:	55                   	push   %rbp
    1319:	48 89 e5             	mov    %rsp,%rbp
    131c:	48 83 ec 20          	sub    $0x20,%rsp
    1320:	48 89 7d e8          	mov    %rdi,-0x18(%rbp)
    1324:	89 75 e4             	mov    %esi,-0x1c(%rbp)
    1327:	48 83 7d e8 00       	cmpq   $0x0,-0x18(%rbp)
    132c:	74 4f                	je     137d <__cxa_finalize@plt+0x85d>
    132e:	48 8b 45 e8          	mov    -0x18(%rbp),%rax
    1332:	48 89 45 f0          	mov    %rax,-0x10(%rbp)
    1336:	c7 45 fc 00 00 00 00 	movl   $0x0,-0x4(%rbp)
    133d:	eb 2a                	jmp    1369 <__cxa_finalize@plt+0x849>
    133f:	8b 45 fc             	mov    -0x4(%rbp),%eax
    1342:	48 98                	cltq   
    1344:	48 8d 14 85 00 00 00 	lea    0x0(,%rax,4),%rdx
    134b:	00 
    134c:	48 8b 45 f0          	mov    -0x10(%rbp),%rax
    1350:	48 01 d0             	add    %rdx,%rax
    1353:	ba 04 00 00 00       	mov    $0x4,%edx
    1358:	48 89 c6             	mov    %rax,%rsi
    135b:	bf 01 00 00 00       	mov    $0x1,%edi
    1360:	e8 eb f6 ff ff       	callq  a50 <write@plt>
    1365:	83 45 fc 01          	addl   $0x1,-0x4(%rbp)
    1369:	8b 45 fc             	mov    -0x4(%rbp),%eax
    136c:	3b 45 e4             	cmp    -0x1c(%rbp),%eax
    136f:	7c ce                	jl     133f <__cxa_finalize@plt+0x81f>
    1371:	bf 0a 00 00 00       	mov    $0xa,%edi
    1376:	e8 95 f6 ff ff       	callq  a10 <putchar@plt>
    137b:	eb 01                	jmp    137e <__cxa_finalize@plt+0x85e>
    137d:	90                   	nop
    137e:	c9                   	leaveq 
    137f:	c3                   	retq   
    1380:	55                   	push   %rbp
    1381:	48 89 e5             	mov    %rsp,%rbp
    1384:	48 81 ec 90 01 00 00 	sub    $0x190,%rsp
    138b:	48 89 bd 18 fe ff ff 	mov    %rdi,-0x1e8(%rbp)
    1392:	89 b5 14 fe ff ff    	mov    %esi,-0x1ec(%rbp)
    1398:	48 89 95 08 fe ff ff 	mov    %rdx,-0x1f8(%rbp)
    139f:	89 8d 10 fe ff ff    	mov    %ecx,-0x1f0(%rbp)
    13a5:	44 89 85 04 fe ff ff 	mov    %r8d,-0x1fc(%rbp)
    13ac:	4c 89 8d f8 fd ff ff 	mov    %r9,-0x208(%rbp)
    13b3:	48 83 bd 18 fe ff ff 	cmpq   $0x0,-0x1e8(%rbp)
    13ba:	00 
    13bb:	75 0a                	jne    13c7 <__cxa_finalize@plt+0x8a7>
    13bd:	b8 00 00 00 00       	mov    $0x0,%eax
    13c2:	e9 51 04 00 00       	jmpq   1818 <__cxa_finalize@plt+0xcf8>
    13c7:	48 83 bd 08 fe ff ff 	cmpq   $0x0,-0x1f8(%rbp)
    13ce:	00 
    13cf:	74 22                	je     13f3 <__cxa_finalize@plt+0x8d3>
    13d1:	83 bd 10 fe ff ff 00 	cmpl   $0x0,-0x1f0(%rbp)
    13d8:	78 19                	js     13f3 <__cxa_finalize@plt+0x8d3>
    13da:	8b 85 10 fe ff ff    	mov    -0x1f0(%rbp),%eax
    13e0:	83 f8 40             	cmp    $0x40,%eax
    13e3:	77 0e                	ja     13f3 <__cxa_finalize@plt+0x8d3>
    13e5:	8b 85 04 fe ff ff    	mov    -0x1fc(%rbp),%eax
    13eb:	3b 85 10 fe ff ff    	cmp    -0x1f0(%rbp),%eax
    13f1:	7c 0a                	jl     13fd <__cxa_finalize@plt+0x8dd>
    13f3:	b8 00 00 00 00       	mov    $0x0,%eax
    13f8:	e9 1b 04 00 00       	jmpq   1818 <__cxa_finalize@plt+0xcf8>
    13fd:	48 83 bd f8 fd ff ff 	cmpq   $0x0,-0x208(%rbp)
    1404:	00 
    1405:	74 0e                	je     1415 <__cxa_finalize@plt+0x8f5>
    1407:	83 7d 10 00          	cmpl   $0x0,0x10(%rbp)
    140b:	78 08                	js     1415 <__cxa_finalize@plt+0x8f5>
    140d:	8b 45 10             	mov    0x10(%rbp),%eax
    1410:	83 f8 40             	cmp    $0x40,%eax
    1413:	76 0a                	jbe    141f <__cxa_finalize@plt+0x8ff>
    1415:	b8 00 00 00 00       	mov    $0x0,%eax
    141a:	e9 f9 03 00 00       	jmpq   1818 <__cxa_finalize@plt+0xcf8>
    141f:	83 bd 14 fe ff ff 00 	cmpl   $0x0,-0x1ec(%rbp)
    1426:	78 0d                	js     1435 <__cxa_finalize@plt+0x915>
    1428:	8b 85 14 fe ff ff    	mov    -0x1ec(%rbp),%eax
    142e:	3d f7 7f 00 00       	cmp    $0x7ff7,%eax
    1433:	76 0a                	jbe    143f <__cxa_finalize@plt+0x91f>
    1435:	b8 00 00 00 00       	mov    $0x0,%eax
    143a:	e9 d9 03 00 00       	jmpq   1818 <__cxa_finalize@plt+0xcf8>
    143f:	8b 85 10 fe ff ff    	mov    -0x1f0(%rbp),%eax
    1445:	2b 85 04 fe ff ff    	sub    -0x1fc(%rbp),%eax
    144b:	89 45 fc             	mov    %eax,-0x4(%rbp)
    144e:	83 7d fc 00          	cmpl   $0x0,-0x4(%rbp)
    1452:	78 0b                	js     145f <__cxa_finalize@plt+0x93f>
    1454:	8b 45 fc             	mov    -0x4(%rbp),%eax
    1457:	3b 85 10 fe ff ff    	cmp    -0x1f0(%rbp),%eax
    145d:	7e 09                	jle    1468 <__cxa_finalize@plt+0x948>
    145f:	8b 85 10 fe ff ff    	mov    -0x1f0(%rbp),%eax
    1465:	89 45 fc             	mov    %eax,-0x4(%rbp)
    1468:	48 8b 85 08 fe ff ff 	mov    -0x1f8(%rbp),%rax
    146f:	48 89 45 e8          	mov    %rax,-0x18(%rbp)
    1473:	48 8b 85 18 fe ff ff 	mov    -0x1e8(%rbp),%rax
    147a:	48 8b 40 10          	mov    0x10(%rax),%rax
    147e:	8b 95 14 fe ff ff    	mov    -0x1ec(%rbp),%edx
    1484:	48 63 d2             	movslq %edx,%rdx
    1487:	48 c1 e2 0c          	shl    $0xc,%rdx
    148b:	48 01 d0             	add    %rdx,%rax
    148e:	48 89 45 e0          	mov    %rax,-0x20(%rbp)
    1492:	48 8b 45 e0          	mov    -0x20(%rbp),%rax
    1496:	48 83 c0 40          	add    $0x40,%rax
    149a:	48 89 45 d8          	mov    %rax,-0x28(%rbp)
    149e:	c7 45 f8 00 00 00 00 	movl   $0x0,-0x8(%rbp)
    14a5:	eb 23                	jmp    14ca <__cxa_finalize@plt+0x9aa>
    14a7:	8b 45 f8             	mov    -0x8(%rbp),%eax
    14aa:	48 63 d0             	movslq %eax,%rdx
    14ad:	48 8b 45 e8          	mov    -0x18(%rbp),%rax
    14b1:	48 01 d0             	add    %rdx,%rax
    14b4:	8b 55 f8             	mov    -0x8(%rbp),%edx
    14b7:	48 63 ca             	movslq %edx,%rcx
    14ba:	48 8b 55 e0          	mov    -0x20(%rbp),%rdx
    14be:	48 01 ca             	add    %rcx,%rdx
    14c1:	0f b6 00             	movzbl (%rax),%eax
    14c4:	88 02                	mov    %al,(%rdx)
    14c6:	83 45 f8 01          	addl   $0x1,-0x8(%rbp)
    14ca:	8b 45 f8             	mov    -0x8(%rbp),%eax
    14cd:	3b 85 10 fe ff ff    	cmp    -0x1f0(%rbp),%eax
    14d3:	7c d2                	jl     14a7 <__cxa_finalize@plt+0x987>
    14d5:	8b 85 04 fe ff ff    	mov    -0x1fc(%rbp),%eax
    14db:	48 63 d0             	movslq %eax,%rdx
    14de:	48 8b 45 e0          	mov    -0x20(%rbp),%rax
    14e2:	48 01 d0             	add    %rdx,%rax
    14e5:	48 89 45 d0          	mov    %rax,-0x30(%rbp)
    14e9:	48 8b 85 f8 fd ff ff 	mov    -0x208(%rbp),%rax
    14f0:	48 89 45 c8          	mov    %rax,-0x38(%rbp)
    14f4:	8b 45 10             	mov    0x10(%rbp),%eax
    14f7:	89 45 c4             	mov    %eax,-0x3c(%rbp)
    14fa:	48 8b 45 d0          	mov    -0x30(%rbp),%rax
    14fe:	48 89 45 b8          	mov    %rax,-0x48(%rbp)
    1502:	8b 45 fc             	mov    -0x4(%rbp),%eax
    1505:	89 45 b4             	mov    %eax,-0x4c(%rbp)
    1508:	48 8b 45 d8          	mov    -0x28(%rbp),%rax
    150c:	48 89 45 a8          	mov    %rax,-0x58(%rbp)
    1510:	48 8b 45 c8          	mov    -0x38(%rbp),%rax
    1514:	48 89 45 a0          	mov    %rax,-0x60(%rbp)
    1518:	8b 45 c4             	mov    -0x3c(%rbp),%eax
    151b:	89 45 9c             	mov    %eax,-0x64(%rbp)
    151e:	48 8d 85 20 fe ff ff 	lea    -0x1e0(%rbp),%rax
    1525:	48 89 45 90          	mov    %rax,-0x70(%rbp)
    1529:	c7 45 8c 00 00 00 00 	movl   $0x0,-0x74(%rbp)
    1530:	c7 45 88 00 00 00 00 	movl   $0x0,-0x78(%rbp)
    1537:	eb 16                	jmp    154f <__cxa_finalize@plt+0xa2f>
    1539:	8b 45 88             	mov    -0x78(%rbp),%eax
    153c:	48 63 d0             	movslq %eax,%rdx
    153f:	48 8b 45 90          	mov    -0x70(%rbp),%rax
    1543:	48 01 d0             	add    %rdx,%rax
    1546:	8b 55 88             	mov    -0x78(%rbp),%edx
    1549:	88 10                	mov    %dl,(%rax)
    154b:	83 45 88 01          	addl   $0x1,-0x78(%rbp)
    154f:	8b 45 88             	mov    -0x78(%rbp),%eax
    1552:	3d ff 00 00 00       	cmp    $0xff,%eax
    1557:	76 e0                	jbe    1539 <__cxa_finalize@plt+0xa19>
    1559:	c7 45 84 00 00 00 00 	movl   $0x0,-0x7c(%rbp)
    1560:	e9 9f 00 00 00       	jmpq   1604 <__cxa_finalize@plt+0xae4>
    1565:	8b 45 84             	mov    -0x7c(%rbp),%eax
    1568:	48 63 d0             	movslq %eax,%rdx
    156b:	48 8b 45 90          	mov    -0x70(%rbp),%rax
    156f:	48 01 d0             	add    %rdx,%rax
    1572:	0f b6 00             	movzbl (%rax),%eax
    1575:	0f b6 d0             	movzbl %al,%edx
    1578:	8b 45 8c             	mov    -0x74(%rbp),%eax
    157b:	8d 0c 02             	lea    (%rdx,%rax,1),%ecx
    157e:	8b 45 84             	mov    -0x7c(%rbp),%eax
    1581:	99                   	cltd   
    1582:	f7 7d 9c             	idivl  -0x64(%rbp)
    1585:	89 d0                	mov    %edx,%eax
    1587:	48 63 d0             	movslq %eax,%rdx
    158a:	48 8b 45 a0          	mov    -0x60(%rbp),%rax
    158e:	48 01 d0             	add    %rdx,%rax
    1591:	0f b6 00             	movzbl (%rax),%eax
    1594:	0f be c0             	movsbl %al,%eax
    1597:	01 c8                	add    %ecx,%eax
    1599:	25 ff 00 00 00       	and    $0xff,%eax
    159e:	89 45 8c             	mov    %eax,-0x74(%rbp)
    15a1:	8b 45 8c             	mov    -0x74(%rbp),%eax
    15a4:	48 63 d0             	movslq %eax,%rdx
    15a7:	48 8b 45 90          	mov    -0x70(%rbp),%rax
    15ab:	48 01 d0             	add    %rdx,%rax
    15ae:	8b 55 84             	mov    -0x7c(%rbp),%edx
    15b1:	48 63 ca             	movslq %edx,%rcx
    15b4:	48 8b 55 90          	mov    -0x70(%rbp),%rdx
    15b8:	48 01 ca             	add    %rcx,%rdx
    15bb:	48 89 95 78 ff ff ff 	mov    %rdx,-0x88(%rbp)
    15c2:	48 89 85 70 ff ff ff 	mov    %rax,-0x90(%rbp)
    15c9:	48 8b 85 78 ff ff ff 	mov    -0x88(%rbp),%rax
    15d0:	0f b6 00             	movzbl (%rax),%eax
    15d3:	0f b6 c0             	movzbl %al,%eax
    15d6:	89 85 6c ff ff ff    	mov    %eax,-0x94(%rbp)
    15dc:	48 8b 85 70 ff ff ff 	mov    -0x90(%rbp),%rax
    15e3:	0f b6 10             	movzbl (%rax),%edx
    15e6:	48 8b 85 78 ff ff ff 	mov    -0x88(%rbp),%rax
    15ed:	88 10                	mov    %dl,(%rax)
    15ef:	8b 85 6c ff ff ff    	mov    -0x94(%rbp),%eax
    15f5:	89 c2                	mov    %eax,%edx
    15f7:	48 8b 85 70 ff ff ff 	mov    -0x90(%rbp),%rax
    15fe:	88 10                	mov    %dl,(%rax)
    1600:	83 45 84 01          	addl   $0x1,-0x7c(%rbp)
    1604:	8b 45 84             	mov    -0x7c(%rbp),%eax
    1607:	3d ff 00 00 00       	cmp    $0xff,%eax
    160c:	0f 86 53 ff ff ff    	jbe    1565 <__cxa_finalize@plt+0xa45>
    1612:	48 8d 85 20 fe ff ff 	lea    -0x1e0(%rbp),%rax
    1619:	48 89 85 60 ff ff ff 	mov    %rax,-0xa0(%rbp)
    1620:	48 8b 45 b8          	mov    -0x48(%rbp),%rax
    1624:	48 89 85 58 ff ff ff 	mov    %rax,-0xa8(%rbp)
    162b:	8b 45 b4             	mov    -0x4c(%rbp),%eax
    162e:	89 85 54 ff ff ff    	mov    %eax,-0xac(%rbp)
    1634:	48 8b 45 a8          	mov    -0x58(%rbp),%rax
    1638:	48 89 85 48 ff ff ff 	mov    %rax,-0xb8(%rbp)
    163f:	c7 85 44 ff ff ff 00 	movl   $0x0,-0xbc(%rbp)
    1646:	00 00 00 
    1649:	c7 85 40 ff ff ff 00 	movl   $0x0,-0xc0(%rbp)
    1650:	00 00 00 
    1653:	c7 85 3c ff ff ff 00 	movl   $0x0,-0xc4(%rbp)
    165a:	00 00 00 
    165d:	e9 38 01 00 00       	jmpq   179a <__cxa_finalize@plt+0xc7a>
    1662:	8b 85 44 ff ff ff    	mov    -0xbc(%rbp),%eax
    1668:	83 c0 01             	add    $0x1,%eax
    166b:	25 ff 00 00 00       	and    $0xff,%eax
    1670:	89 85 44 ff ff ff    	mov    %eax,-0xbc(%rbp)
    1676:	8b 85 44 ff ff ff    	mov    -0xbc(%rbp),%eax
    167c:	48 63 d0             	movslq %eax,%rdx
    167f:	48 8b 85 60 ff ff ff 	mov    -0xa0(%rbp),%rax
    1686:	48 01 d0             	add    %rdx,%rax
    1689:	0f b6 00             	movzbl (%rax),%eax
    168c:	0f b6 d0             	movzbl %al,%edx
    168f:	8b 85 40 ff ff ff    	mov    -0xc0(%rbp),%eax
    1695:	01 d0                	add    %edx,%eax
    1697:	25 ff 00 00 00       	and    $0xff,%eax
    169c:	89 85 40 ff ff ff    	mov    %eax,-0xc0(%rbp)
    16a2:	8b 85 40 ff ff ff    	mov    -0xc0(%rbp),%eax
    16a8:	48 63 d0             	movslq %eax,%rdx
    16ab:	48 8b 85 60 ff ff ff 	mov    -0xa0(%rbp),%rax
    16b2:	48 01 d0             	add    %rdx,%rax
    16b5:	8b 95 44 ff ff ff    	mov    -0xbc(%rbp),%edx
    16bb:	48 63 ca             	movslq %edx,%rcx
    16be:	48 8b 95 60 ff ff ff 	mov    -0xa0(%rbp),%rdx
    16c5:	48 01 ca             	add    %rcx,%rdx
    16c8:	48 89 95 30 ff ff ff 	mov    %rdx,-0xd0(%rbp)
    16cf:	48 89 85 28 ff ff ff 	mov    %rax,-0xd8(%rbp)
    16d6:	48 8b 85 30 ff ff ff 	mov    -0xd0(%rbp),%rax
    16dd:	0f b6 00             	movzbl (%rax),%eax
    16e0:	0f b6 c0             	movzbl %al,%eax
    16e3:	89 85 24 ff ff ff    	mov    %eax,-0xdc(%rbp)
    16e9:	48 8b 85 28 ff ff ff 	mov    -0xd8(%rbp),%rax
    16f0:	0f b6 10             	movzbl (%rax),%edx
    16f3:	48 8b 85 30 ff ff ff 	mov    -0xd0(%rbp),%rax
    16fa:	88 10                	mov    %dl,(%rax)
    16fc:	8b 85 24 ff ff ff    	mov    -0xdc(%rbp),%eax
    1702:	89 c2                	mov    %eax,%edx
    1704:	48 8b 85 28 ff ff ff 	mov    -0xd8(%rbp),%rax
    170b:	88 10                	mov    %dl,(%rax)
    170d:	8b 85 44 ff ff ff    	mov    -0xbc(%rbp),%eax
    1713:	48 63 d0             	movslq %eax,%rdx
    1716:	48 8b 85 60 ff ff ff 	mov    -0xa0(%rbp),%rax
    171d:	48 01 d0             	add    %rdx,%rax
    1720:	0f b6 00             	movzbl (%rax),%eax
    1723:	0f b6 d0             	movzbl %al,%edx
    1726:	8b 85 40 ff ff ff    	mov    -0xc0(%rbp),%eax
    172c:	48 63 c8             	movslq %eax,%rcx
    172f:	48 8b 85 60 ff ff ff 	mov    -0xa0(%rbp),%rax
    1736:	48 01 c8             	add    %rcx,%rax
    1739:	0f b6 00             	movzbl (%rax),%eax
    173c:	0f b6 c0             	movzbl %al,%eax
    173f:	01 d0                	add    %edx,%eax
    1741:	48 98                	cltq   
    1743:	0f b6 d0             	movzbl %al,%edx
    1746:	48 8b 85 60 ff ff ff 	mov    -0xa0(%rbp),%rax
    174d:	48 01 d0             	add    %rdx,%rax
    1750:	0f b6 00             	movzbl (%rax),%eax
    1753:	0f b6 c0             	movzbl %al,%eax
    1756:	89 85 20 ff ff ff    	mov    %eax,-0xe0(%rbp)
    175c:	8b 85 3c ff ff ff    	mov    -0xc4(%rbp),%eax
    1762:	48 63 d0             	movslq %eax,%rdx
    1765:	48 8b 85 58 ff ff ff 	mov    -0xa8(%rbp),%rax
    176c:	48 01 d0             	add    %rdx,%rax
    176f:	0f b6 10             	movzbl (%rax),%edx
    1772:	8b 85 20 ff ff ff    	mov    -0xe0(%rbp),%eax
    1778:	89 d1                	mov    %edx,%ecx
    177a:	31 c1                	xor    %eax,%ecx
    177c:	8b 85 3c ff ff ff    	mov    -0xc4(%rbp),%eax
    1782:	48 63 d0             	movslq %eax,%rdx
    1785:	48 8b 85 48 ff ff ff 	mov    -0xb8(%rbp),%rax
    178c:	48 01 d0             	add    %rdx,%rax
    178f:	89 ca                	mov    %ecx,%edx
    1791:	88 10                	mov    %dl,(%rax)
    1793:	83 85 3c ff ff ff 01 	addl   $0x1,-0xc4(%rbp)
    179a:	8b 85 54 ff ff ff    	mov    -0xac(%rbp),%eax
    17a0:	3b 85 3c ff ff ff    	cmp    -0xc4(%rbp),%eax
    17a6:	0f 8f b6 fe ff ff    	jg     1662 <__cxa_finalize@plt+0xb42>
    17ac:	c7 45 f4 00 00 00 00 	movl   $0x0,-0xc(%rbp)
    17b3:	eb 23                	jmp    17d8 <__cxa_finalize@plt+0xcb8>
    17b5:	8b 45 f4             	mov    -0xc(%rbp),%eax
    17b8:	48 63 d0             	movslq %eax,%rdx
    17bb:	48 8b 45 d8          	mov    -0x28(%rbp),%rax
    17bf:	48 01 d0             	add    %rdx,%rax
    17c2:	8b 55 f4             	mov    -0xc(%rbp),%edx
    17c5:	48 63 ca             	movslq %edx,%rcx
    17c8:	48 8b 55 d0          	mov    -0x30(%rbp),%rdx
    17cc:	48 01 ca             	add    %rcx,%rdx
    17cf:	0f b6 00             	movzbl (%rax),%eax
    17d2:	88 02                	mov    %al,(%rdx)
    17d4:	83 45 f4 01          	addl   $0x1,-0xc(%rbp)
    17d8:	8b 45 f4             	mov    -0xc(%rbp),%eax
    17db:	3b 45 fc             	cmp    -0x4(%rbp),%eax
    17de:	7c d5                	jl     17b5 <__cxa_finalize@plt+0xc95>
    17e0:	c7 45 f0 00 00 00 00 	movl   $0x0,-0x10(%rbp)
    17e7:	eb 23                	jmp    180c <__cxa_finalize@plt+0xcec>
    17e9:	8b 45 f0             	mov    -0x10(%rbp),%eax
    17ec:	48 63 d0             	movslq %eax,%rdx
    17ef:	48 8b 45 d0          	mov    -0x30(%rbp),%rax
    17f3:	48 01 d0             	add    %rdx,%rax
    17f6:	8b 55 f0             	mov    -0x10(%rbp),%edx
    17f9:	48 63 ca             	movslq %edx,%rcx
    17fc:	48 8b 55 e8          	mov    -0x18(%rbp),%rdx
    1800:	48 01 ca             	add    %rcx,%rdx
    1803:	0f b6 00             	movzbl (%rax),%eax
    1806:	88 02                	mov    %al,(%rdx)
    1808:	83 45 f0 01          	addl   $0x1,-0x10(%rbp)
    180c:	8b 45 f0             	mov    -0x10(%rbp),%eax
    180f:	3b 45 fc             	cmp    -0x4(%rbp),%eax
    1812:	7c d5                	jl     17e9 <__cxa_finalize@plt+0xcc9>
    1814:	48 8b 45 e8          	mov    -0x18(%rbp),%rax
    1818:	c9                   	leaveq 
    1819:	c3                   	retq   
    181a:	55                   	push   %rbp
    181b:	48 89 e5             	mov    %rsp,%rbp
    181e:	48 89 7d e8          	mov    %rdi,-0x18(%rbp)
    1822:	48 89 75 e0          	mov    %rsi,-0x20(%rbp)
    1826:	89 55 dc             	mov    %edx,-0x24(%rbp)
    1829:	48 83 7d e8 00       	cmpq   $0x0,-0x18(%rbp)
    182e:	75 07                	jne    1837 <__cxa_finalize@plt+0xd17>
    1830:	b8 00 00 00 00       	mov    $0x0,%eax
    1835:	eb 3e                	jmp    1875 <__cxa_finalize@plt+0xd55>
    1837:	48 83 7d e0 00       	cmpq   $0x0,-0x20(%rbp)
    183c:	75 07                	jne    1845 <__cxa_finalize@plt+0xd25>
    183e:	b8 00 00 00 00       	mov    $0x0,%eax
    1843:	eb 30                	jmp    1875 <__cxa_finalize@plt+0xd55>
    1845:	c6 45 ff 00          	movb   $0x0,-0x1(%rbp)
    1849:	c7 45 f8 00 00 00 00 	movl   $0x0,-0x8(%rbp)
    1850:	eb 17                	jmp    1869 <__cxa_finalize@plt+0xd49>
    1852:	8b 45 f8             	mov    -0x8(%rbp),%eax
    1855:	48 63 d0             	movslq %eax,%rdx
    1858:	48 8b 45 e0          	mov    -0x20(%rbp),%rax
    185c:	48 01 d0             	add    %rdx,%rax
    185f:	0f b6 00             	movzbl (%rax),%eax
    1862:	30 45 ff             	xor    %al,-0x1(%rbp)
    1865:	83 45 f8 01          	addl   $0x1,-0x8(%rbp)
    1869:	8b 45 f8             	mov    -0x8(%rbp),%eax
    186c:	3b 45 dc             	cmp    -0x24(%rbp),%eax
    186f:	7c e1                	jl     1852 <__cxa_finalize@plt+0xd32>
    1871:	0f be 45 ff          	movsbl -0x1(%rbp),%eax
    1875:	5d                   	pop    %rbp
    1876:	c3                   	retq   
    1877:	55                   	push   %rbp
    1878:	48 89 e5             	mov    %rsp,%rbp
    187b:	48 83 ec 30          	sub    $0x30,%rsp
    187f:	48 89 7d e8          	mov    %rdi,-0x18(%rbp)
    1883:	48 89 75 e0          	mov    %rsi,-0x20(%rbp)
    1887:	89 55 dc             	mov    %edx,-0x24(%rbp)
    188a:	c7 45 f0 00 40 00 00 	movl   $0x4000,-0x10(%rbp)
    1891:	c7 45 fc 00 00 00 00 	movl   $0x0,-0x4(%rbp)
    1898:	eb 5d                	jmp    18f7 <__cxa_finalize@plt+0xdd7>
    189a:	c7 45 f8 01 00 00 00 	movl   $0x1,-0x8(%rbp)
    18a1:	c7 45 f4 00 00 00 00 	movl   $0x0,-0xc(%rbp)
    18a8:	eb 36                	jmp    18e0 <__cxa_finalize@plt+0xdc0>
    18aa:	8b 55 fc             	mov    -0x4(%rbp),%edx
    18ad:	8b 45 f4             	mov    -0xc(%rbp),%eax
    18b0:	01 d0                	add    %edx,%eax
    18b2:	48 63 d0             	movslq %eax,%rdx
    18b5:	48 8b 45 e8          	mov    -0x18(%rbp),%rax
    18b9:	48 01 d0             	add    %rdx,%rax
    18bc:	0f b6 10             	movzbl (%rax),%edx
    18bf:	8b 45 f4             	mov    -0xc(%rbp),%eax
    18c2:	48 63 c8             	movslq %eax,%rcx
    18c5:	48 8b 45 e0          	mov    -0x20(%rbp),%rax
    18c9:	48 01 c8             	add    %rcx,%rax
    18cc:	0f b6 00             	movzbl (%rax),%eax
    18cf:	38 c2                	cmp    %al,%dl
    18d1:	74 09                	je     18dc <__cxa_finalize@plt+0xdbc>
    18d3:	c7 45 f8 00 00 00 00 	movl   $0x0,-0x8(%rbp)
    18da:	eb 0c                	jmp    18e8 <__cxa_finalize@plt+0xdc8>
    18dc:	83 45 f4 01          	addl   $0x1,-0xc(%rbp)
    18e0:	8b 45 f4             	mov    -0xc(%rbp),%eax
    18e3:	3b 45 dc             	cmp    -0x24(%rbp),%eax
    18e6:	7c c2                	jl     18aa <__cxa_finalize@plt+0xd8a>
    18e8:	83 7d f8 00          	cmpl   $0x0,-0x8(%rbp)
    18ec:	74 05                	je     18f3 <__cxa_finalize@plt+0xdd3>
    18ee:	8b 45 fc             	mov    -0x4(%rbp),%eax
    18f1:	eb 14                	jmp    1907 <__cxa_finalize@plt+0xde7>
    18f3:	83 45 fc 01          	addl   $0x1,-0x4(%rbp)
    18f7:	8b 45 f0             	mov    -0x10(%rbp),%eax
    18fa:	2b 45 dc             	sub    -0x24(%rbp),%eax
    18fd:	39 45 fc             	cmp    %eax,-0x4(%rbp)
    1900:	7c 98                	jl     189a <__cxa_finalize@plt+0xd7a>
    1902:	e8 19 f1 ff ff       	callq  a20 <abort@plt>
    1907:	c9                   	leaveq 
    1908:	c3                   	retq   
    1909:	55                   	push   %rbp
    190a:	48 89 e5             	mov    %rsp,%rbp
    190d:	48 83 ec 20          	sub    $0x20,%rsp
    1911:	48 89 7d e8          	mov    %rdi,-0x18(%rbp)
    1915:	c7 45 fc 00 00 00 00 	movl   $0x0,-0x4(%rbp)
    191c:	eb 25                	jmp    1943 <__cxa_finalize@plt+0xe23>
    191e:	8b 45 fc             	mov    -0x4(%rbp),%eax
    1921:	48 98                	cltq   
    1923:	48 8d 14 c5 00 00 00 	lea    0x0(,%rax,8),%rdx
    192a:	00 
    192b:	48 8d 05 8e 17 20 00 	lea    0x20178e(%rip),%rax        # 2030c0 <stderr@@GLIBC_2.2.5+0x20>
    1932:	48 8b 14 02          	mov    (%rdx,%rax,1),%rdx
    1936:	48 8b 45 e8          	mov    -0x18(%rbp),%rax
    193a:	48 39 c2             	cmp    %rax,%rdx
    193d:	74 0e                	je     194d <__cxa_finalize@plt+0xe2d>
    193f:	83 45 fc 01          	addl   $0x1,-0x4(%rbp)
    1943:	8b 45 fc             	mov    -0x4(%rbp),%eax
    1946:	83 f8 04             	cmp    $0x4,%eax
    1949:	76 d3                	jbe    191e <__cxa_finalize@plt+0xdfe>
    194b:	eb 01                	jmp    194e <__cxa_finalize@plt+0xe2e>
    194d:	90                   	nop
    194e:	83 7d fc 05          	cmpl   $0x5,-0x4(%rbp)
    1952:	75 05                	jne    1959 <__cxa_finalize@plt+0xe39>
    1954:	e8 c7 f0 ff ff       	callq  a20 <abort@plt>
    1959:	83 7d fc 04          	cmpl   $0x4,-0x4(%rbp)
    195d:	75 05                	jne    1964 <__cxa_finalize@plt+0xe44>
    195f:	e8 bc f0 ff ff       	callq  a20 <abort@plt>
    1964:	8b 45 fc             	mov    -0x4(%rbp),%eax
    1967:	83 c0 01             	add    $0x1,%eax
    196a:	48 98                	cltq   
    196c:	48 8d 14 c5 00 00 00 	lea    0x0(,%rax,8),%rdx
    1973:	00 
    1974:	48 8d 05 45 17 20 00 	lea    0x201745(%rip),%rax        # 2030c0 <stderr@@GLIBC_2.2.5+0x20>
    197b:	48 8b 04 02          	mov    (%rdx,%rax,1),%rax
    197f:	89 c1                	mov    %eax,%ecx
    1981:	8b 45 fc             	mov    -0x4(%rbp),%eax
    1984:	48 98                	cltq   
    1986:	48 8d 14 c5 00 00 00 	lea    0x0(,%rax,8),%rdx
    198d:	00 
    198e:	48 8d 05 2b 17 20 00 	lea    0x20172b(%rip),%rax        # 2030c0 <stderr@@GLIBC_2.2.5+0x20>
    1995:	48 8b 04 02          	mov    (%rdx,%rax,1),%rax
    1999:	29 c1                	sub    %eax,%ecx
    199b:	89 c8                	mov    %ecx,%eax
    199d:	89 45 f8             	mov    %eax,-0x8(%rbp)
    19a0:	83 7d f8 00          	cmpl   $0x0,-0x8(%rbp)
    19a4:	7e 0a                	jle    19b0 <__cxa_finalize@plt+0xe90>
    19a6:	8b 45 f8             	mov    -0x8(%rbp),%eax
    19a9:	3d 00 40 00 00       	cmp    $0x4000,%eax
    19ae:	76 05                	jbe    19b5 <__cxa_finalize@plt+0xe95>
    19b0:	e8 6b f0 ff ff       	callq  a20 <abort@plt>
    19b5:	8b 45 f8             	mov    -0x8(%rbp),%eax
    19b8:	c9                   	leaveq 
    19b9:	c3                   	retq   
    19ba:	55                   	push   %rbp
    19bb:	48 89 e5             	mov    %rsp,%rbp
    19be:	48 83 ec 30          	sub    $0x30,%rsp
    19c2:	48 89 7d d8          	mov    %rdi,-0x28(%rbp)
    19c6:	89 75 d4             	mov    %esi,-0x2c(%rbp)
    19c9:	48 83 7d d8 00       	cmpq   $0x0,-0x28(%rbp)
    19ce:	0f 84 ac 01 00 00    	je     1b80 <__cxa_finalize@plt+0x1060>
    19d4:	48 8b 45 d8          	mov    -0x28(%rbp),%rax
    19d8:	0f b6 00             	movzbl (%rax),%eax
    19db:	84 c0                	test   %al,%al
    19dd:	0f 88 a0 01 00 00    	js     1b83 <__cxa_finalize@plt+0x1063>
    19e3:	48 8b 45 d8          	mov    -0x28(%rbp),%rax
    19e7:	0f b6 00             	movzbl (%rax),%eax
    19ea:	3c 09                	cmp    $0x9,%al
    19ec:	0f 87 91 01 00 00    	ja     1b83 <__cxa_finalize@plt+0x1063>
    19f2:	83 7d d4 01          	cmpl   $0x1,-0x2c(%rbp)
    19f6:	0f 87 8a 01 00 00    	ja     1b86 <__cxa_finalize@plt+0x1066>
    19fc:	48 8b 45 d8          	mov    -0x28(%rbp),%rax
    1a00:	0f b6 00             	movzbl (%rax),%eax
    1a03:	0f be c0             	movsbl %al,%eax
    1a06:	48 98                	cltq   
    1a08:	48 69 d0 18 80 00 00 	imul   $0x8018,%rax,%rdx
    1a0f:	48 8b 45 d8          	mov    -0x28(%rbp),%rax
    1a13:	48 01 d0             	add    %rdx,%rax
    1a16:	48 83 c0 08          	add    $0x8,%rax
    1a1a:	48 89 45 f0          	mov    %rax,-0x10(%rbp)
    1a1e:	48 8b 45 f0          	mov    -0x10(%rbp),%rax
    1a22:	8b 55 d4             	mov    -0x2c(%rbp),%edx
    1a25:	89 90 10 80 00 00    	mov    %edx,0x8010(%rax)
    1a2b:	48 8b 45 d8          	mov    -0x28(%rbp),%rax
    1a2f:	0f b6 00             	movzbl (%rax),%eax
    1a32:	0f be c0             	movsbl %al,%eax
    1a35:	89 c7                	mov    %eax,%edi
    1a37:	e8 b8 f5 ff ff       	callq  ff4 <__cxa_finalize@plt+0x4d4>
    1a3c:	48 89 c2             	mov    %rax,%rdx
    1a3f:	48 8b 45 f0          	mov    -0x10(%rbp),%rax
    1a43:	48 89 10             	mov    %rdx,(%rax)
    1a46:	48 8b 45 d8          	mov    -0x28(%rbp),%rax
    1a4a:	0f b6 00             	movzbl (%rax),%eax
    1a4d:	0f be c0             	movsbl %al,%eax
    1a50:	89 c7                	mov    %eax,%edi
    1a52:	e8 67 f5 ff ff       	callq  fbe <__cxa_finalize@plt+0x49e>
    1a57:	48 89 c2             	mov    %rax,%rdx
    1a5a:	48 8b 45 f0          	mov    -0x10(%rbp),%rax
    1a5e:	48 89 50 08          	mov    %rdx,0x8(%rax)
    1a62:	48 8b 45 d8          	mov    -0x28(%rbp),%rax
    1a66:	0f b6 00             	movzbl (%rax),%eax
    1a69:	0f be c0             	movsbl %al,%eax
    1a6c:	89 c7                	mov    %eax,%edi
    1a6e:	e8 bd f5 ff ff       	callq  1030 <__cxa_finalize@plt+0x510>
    1a73:	48 89 c2             	mov    %rax,%rdx
    1a76:	48 8b 45 f0          	mov    -0x10(%rbp),%rax
    1a7a:	48 89 50 10          	mov    %rdx,0x10(%rax)
    1a7e:	c7 45 fc 00 00 00 00 	movl   $0x0,-0x4(%rbp)
    1a85:	eb 12                	jmp    1a99 <__cxa_finalize@plt+0xf79>
    1a87:	48 8b 55 f0          	mov    -0x10(%rbp),%rdx
    1a8b:	8b 45 fc             	mov    -0x4(%rbp),%eax
    1a8e:	48 98                	cltq   
    1a90:	c6 44 02 18 00       	movb   $0x0,0x18(%rdx,%rax,1)
    1a95:	83 45 fc 01          	addl   $0x1,-0x4(%rbp)
    1a99:	8b 45 fc             	mov    -0x4(%rbp),%eax
    1a9c:	3d f7 7f 00 00       	cmp    $0x7ff7,%eax
    1aa1:	76 e4                	jbe    1a87 <__cxa_finalize@plt+0xf67>
    1aa3:	c7 45 ec ff ff ff ff 	movl   $0xffffffff,-0x14(%rbp)
    1aaa:	8b 45 d4             	mov    -0x2c(%rbp),%eax
    1aad:	85 c0                	test   %eax,%eax
    1aaf:	74 0a                	je     1abb <__cxa_finalize@plt+0xf9b>
    1ab1:	83 f8 01             	cmp    $0x1,%eax
    1ab4:	74 5e                	je     1b14 <__cxa_finalize@plt+0xff4>
    1ab6:	e9 b1 00 00 00       	jmpq   1b6c <__cxa_finalize@plt+0x104c>
    1abb:	48 8d 3d ce f7 ff ff 	lea    -0x832(%rip),%rdi        # 1290 <__cxa_finalize@plt+0x770>
    1ac2:	e8 42 fe ff ff       	callq  1909 <__cxa_finalize@plt+0xde9>
    1ac7:	89 45 ec             	mov    %eax,-0x14(%rbp)
    1aca:	8b 45 ec             	mov    -0x14(%rbp),%eax
    1acd:	48 63 d0             	movslq %eax,%rdx
    1ad0:	48 8b 45 f0          	mov    -0x10(%rbp),%rax
    1ad4:	48 8b 40 08          	mov    0x8(%rax),%rax
    1ad8:	48 8d 35 b1 f7 ff ff 	lea    -0x84f(%rip),%rsi        # 1290 <__cxa_finalize@plt+0x770>
    1adf:	48 89 c7             	mov    %rax,%rdi
    1ae2:	e8 e9 ef ff ff       	callq  ad0 <memcpy@plt>
    1ae7:	48 8d 3d 7e f5 ff ff 	lea    -0xa82(%rip),%rdi        # 106c <__cxa_finalize@plt+0x54c>
    1aee:	e8 16 fe ff ff       	callq  1909 <__cxa_finalize@plt+0xde9>
    1af3:	89 45 ec             	mov    %eax,-0x14(%rbp)
    1af6:	8b 45 ec             	mov    -0x14(%rbp),%eax
    1af9:	48 63 d0             	movslq %eax,%rdx
    1afc:	48 8b 45 f0          	mov    -0x10(%rbp),%rax
    1b00:	48 8b 00             	mov    (%rax),%rax
    1b03:	48 8d 35 62 f5 ff ff 	lea    -0xa9e(%rip),%rsi        # 106c <__cxa_finalize@plt+0x54c>
    1b0a:	48 89 c7             	mov    %rax,%rdi
    1b0d:	e8 be ef ff ff       	callq  ad0 <memcpy@plt>
    1b12:	eb 58                	jmp    1b6c <__cxa_finalize@plt+0x104c>
    1b14:	48 8d 3d 65 f8 ff ff 	lea    -0x79b(%rip),%rdi        # 1380 <__cxa_finalize@plt+0x860>
    1b1b:	e8 e9 fd ff ff       	callq  1909 <__cxa_finalize@plt+0xde9>
    1b20:	89 45 ec             	mov    %eax,-0x14(%rbp)
    1b23:	8b 45 ec             	mov    -0x14(%rbp),%eax
    1b26:	48 63 d0             	movslq %eax,%rdx
    1b29:	48 8b 45 f0          	mov    -0x10(%rbp),%rax
    1b2d:	48 8b 40 08          	mov    0x8(%rax),%rax
    1b31:	48 8d 35 48 f8 ff ff 	lea    -0x7b8(%rip),%rsi        # 1380 <__cxa_finalize@plt+0x860>
    1b38:	48 89 c7             	mov    %rax,%rdi
    1b3b:	e8 90 ef ff ff       	callq  ad0 <memcpy@plt>
    1b40:	48 8d 3d d3 fc ff ff 	lea    -0x32d(%rip),%rdi        # 181a <__cxa_finalize@plt+0xcfa>
    1b47:	e8 bd fd ff ff       	callq  1909 <__cxa_finalize@plt+0xde9>
    1b4c:	89 45 ec             	mov    %eax,-0x14(%rbp)
    1b4f:	8b 45 ec             	mov    -0x14(%rbp),%eax
    1b52:	48 63 d0             	movslq %eax,%rdx
    1b55:	48 8b 45 f0          	mov    -0x10(%rbp),%rax
    1b59:	48 8b 00             	mov    (%rax),%rax
    1b5c:	48 8d 35 b7 fc ff ff 	lea    -0x349(%rip),%rsi        # 181a <__cxa_finalize@plt+0xcfa>
    1b63:	48 89 c7             	mov    %rax,%rdi
    1b66:	e8 65 ef ff ff       	callq  ad0 <memcpy@plt>
    1b6b:	90                   	nop
    1b6c:	48 8b 45 d8          	mov    -0x28(%rbp),%rax
    1b70:	0f b6 00             	movzbl (%rax),%eax
    1b73:	83 c0 01             	add    $0x1,%eax
    1b76:	89 c2                	mov    %eax,%edx
    1b78:	48 8b 45 d8          	mov    -0x28(%rbp),%rax
    1b7c:	88 10                	mov    %dl,(%rax)
    1b7e:	eb 07                	jmp    1b87 <__cxa_finalize@plt+0x1067>
    1b80:	90                   	nop
    1b81:	eb 04                	jmp    1b87 <__cxa_finalize@plt+0x1067>
    1b83:	90                   	nop
    1b84:	eb 01                	jmp    1b87 <__cxa_finalize@plt+0x1067>
    1b86:	90                   	nop
    1b87:	c9                   	leaveq 
    1b88:	c3                   	retq   
    1b89:	55                   	push   %rbp
    1b8a:	48 89 e5             	mov    %rsp,%rbp
    1b8d:	48 83 ec 20          	sub    $0x20,%rsp
    1b91:	48 89 7d e8          	mov    %rdi,-0x18(%rbp)
    1b95:	89 75 e4             	mov    %esi,-0x1c(%rbp)
    1b98:	48 83 7d e8 00       	cmpq   $0x0,-0x18(%rbp)
    1b9d:	0f 84 ca 00 00 00    	je     1c6d <__cxa_finalize@plt+0x114d>
    1ba3:	48 8b 45 e8          	mov    -0x18(%rbp),%rax
    1ba7:	0f b6 00             	movzbl (%rax),%eax
    1baa:	84 c0                	test   %al,%al
    1bac:	0f 88 be 00 00 00    	js     1c70 <__cxa_finalize@plt+0x1150>
    1bb2:	48 8b 45 e8          	mov    -0x18(%rbp),%rax
    1bb6:	0f b6 00             	movzbl (%rax),%eax
    1bb9:	3c 09                	cmp    $0x9,%al
    1bbb:	0f 87 af 00 00 00    	ja     1c70 <__cxa_finalize@plt+0x1150>
    1bc1:	83 7d e4 00          	cmpl   $0x0,-0x1c(%rbp)
    1bc5:	0f 88 a8 00 00 00    	js     1c73 <__cxa_finalize@plt+0x1153>
    1bcb:	48 8b 45 e8          	mov    -0x18(%rbp),%rax
    1bcf:	0f b6 00             	movzbl (%rax),%eax
    1bd2:	0f be c0             	movsbl %al,%eax
    1bd5:	39 45 e4             	cmp    %eax,-0x1c(%rbp)
    1bd8:	0f 8d 95 00 00 00    	jge    1c73 <__cxa_finalize@plt+0x1153>
    1bde:	48 c7 45 f0 00 00 00 	movq   $0x0,-0x10(%rbp)
    1be5:	00 
    1be6:	c7 45 fc 00 00 00 00 	movl   $0x0,-0x4(%rbp)
    1bed:	eb 6d                	jmp    1c5c <__cxa_finalize@plt+0x113c>
    1bef:	8b 45 fc             	mov    -0x4(%rbp),%eax
    1bf2:	3b 45 e4             	cmp    -0x1c(%rbp),%eax
    1bf5:	74 60                	je     1c57 <__cxa_finalize@plt+0x1137>
    1bf7:	8b 45 fc             	mov    -0x4(%rbp),%eax
    1bfa:	48 98                	cltq   
    1bfc:	48 69 d0 18 80 00 00 	imul   $0x8018,%rax,%rdx
    1c03:	48 8b 45 e8          	mov    -0x18(%rbp),%rax
    1c07:	48 01 d0             	add    %rdx,%rax
    1c0a:	48 83 c0 08          	add    $0x8,%rax
    1c0e:	48 89 45 f0          	mov    %rax,-0x10(%rbp)
    1c12:	48 8b 45 f0          	mov    -0x10(%rbp),%rax
    1c16:	48 8b 00             	mov    (%rax),%rax
    1c19:	ba 05 00 00 00       	mov    $0x5,%edx
    1c1e:	be 00 40 00 00       	mov    $0x4000,%esi
    1c23:	48 89 c7             	mov    %rax,%rdi
    1c26:	e8 c5 ee ff ff       	callq  af0 <mprotect@plt>
    1c2b:	85 c0                	test   %eax,%eax
    1c2d:	79 05                	jns    1c34 <__cxa_finalize@plt+0x1114>
    1c2f:	e8 ec ed ff ff       	callq  a20 <abort@plt>
    1c34:	48 8b 45 f0          	mov    -0x10(%rbp),%rax
    1c38:	48 8b 40 08          	mov    0x8(%rax),%rax
    1c3c:	ba 05 00 00 00       	mov    $0x5,%edx
    1c41:	be 00 40 00 00       	mov    $0x4000,%esi
    1c46:	48 89 c7             	mov    %rax,%rdi
    1c49:	e8 a2 ee ff ff       	callq  af0 <mprotect@plt>
    1c4e:	85 c0                	test   %eax,%eax
    1c50:	79 06                	jns    1c58 <__cxa_finalize@plt+0x1138>
    1c52:	e8 c9 ed ff ff       	callq  a20 <abort@plt>
    1c57:	90                   	nop
    1c58:	83 45 fc 01          	addl   $0x1,-0x4(%rbp)
    1c5c:	48 8b 45 e8          	mov    -0x18(%rbp),%rax
    1c60:	0f b6 00             	movzbl (%rax),%eax
    1c63:	0f be c0             	movsbl %al,%eax
    1c66:	39 45 fc             	cmp    %eax,-0x4(%rbp)
    1c69:	7c 84                	jl     1bef <__cxa_finalize@plt+0x10cf>
    1c6b:	eb 07                	jmp    1c74 <__cxa_finalize@plt+0x1154>
    1c6d:	90                   	nop
    1c6e:	eb 04                	jmp    1c74 <__cxa_finalize@plt+0x1154>
    1c70:	90                   	nop
    1c71:	eb 01                	jmp    1c74 <__cxa_finalize@plt+0x1154>
    1c73:	90                   	nop
    1c74:	c9                   	leaveq 
    1c75:	c3                   	retq   
    1c76:	55                   	push   %rbp
    1c77:	48 89 e5             	mov    %rsp,%rbp
    1c7a:	48 83 ec 20          	sub    $0x20,%rsp
    1c7e:	48 89 7d e8          	mov    %rdi,-0x18(%rbp)
    1c82:	89 75 e4             	mov    %esi,-0x1c(%rbp)
    1c85:	48 83 7d e8 00       	cmpq   $0x0,-0x18(%rbp)
    1c8a:	0f 84 ca 00 00 00    	je     1d5a <__cxa_finalize@plt+0x123a>
    1c90:	48 8b 45 e8          	mov    -0x18(%rbp),%rax
    1c94:	0f b6 00             	movzbl (%rax),%eax
    1c97:	84 c0                	test   %al,%al
    1c99:	0f 88 be 00 00 00    	js     1d5d <__cxa_finalize@plt+0x123d>
    1c9f:	48 8b 45 e8          	mov    -0x18(%rbp),%rax
    1ca3:	0f b6 00             	movzbl (%rax),%eax
    1ca6:	3c 09                	cmp    $0x9,%al
    1ca8:	0f 87 af 00 00 00    	ja     1d5d <__cxa_finalize@plt+0x123d>
    1cae:	83 7d e4 00          	cmpl   $0x0,-0x1c(%rbp)
    1cb2:	0f 88 a8 00 00 00    	js     1d60 <__cxa_finalize@plt+0x1240>
    1cb8:	48 8b 45 e8          	mov    -0x18(%rbp),%rax
    1cbc:	0f b6 00             	movzbl (%rax),%eax
    1cbf:	0f be c0             	movsbl %al,%eax
    1cc2:	39 45 e4             	cmp    %eax,-0x1c(%rbp)
    1cc5:	0f 8d 95 00 00 00    	jge    1d60 <__cxa_finalize@plt+0x1240>
    1ccb:	48 c7 45 f0 00 00 00 	movq   $0x0,-0x10(%rbp)
    1cd2:	00 
    1cd3:	c7 45 fc 00 00 00 00 	movl   $0x0,-0x4(%rbp)
    1cda:	eb 6d                	jmp    1d49 <__cxa_finalize@plt+0x1229>
    1cdc:	8b 45 fc             	mov    -0x4(%rbp),%eax
    1cdf:	3b 45 e4             	cmp    -0x1c(%rbp),%eax
    1ce2:	74 60                	je     1d44 <__cxa_finalize@plt+0x1224>
    1ce4:	8b 45 fc             	mov    -0x4(%rbp),%eax
    1ce7:	48 98                	cltq   
    1ce9:	48 69 d0 18 80 00 00 	imul   $0x8018,%rax,%rdx
    1cf0:	48 8b 45 e8          	mov    -0x18(%rbp),%rax
    1cf4:	48 01 d0             	add    %rdx,%rax
    1cf7:	48 83 c0 08          	add    $0x8,%rax
    1cfb:	48 89 45 f0          	mov    %rax,-0x10(%rbp)
    1cff:	48 8b 45 f0          	mov    -0x10(%rbp),%rax
    1d03:	48 8b 00             	mov    (%rax),%rax
    1d06:	ba 07 00 00 00       	mov    $0x7,%edx
    1d0b:	be 00 40 00 00       	mov    $0x4000,%esi
    1d10:	48 89 c7             	mov    %rax,%rdi
    1d13:	e8 d8 ed ff ff       	callq  af0 <mprotect@plt>
    1d18:	85 c0                	test   %eax,%eax
    1d1a:	79 05                	jns    1d21 <__cxa_finalize@plt+0x1201>
    1d1c:	e8 ff ec ff ff       	callq  a20 <abort@plt>
    1d21:	48 8b 45 f0          	mov    -0x10(%rbp),%rax
    1d25:	48 8b 40 08          	mov    0x8(%rax),%rax
    1d29:	ba 07 00 00 00       	mov    $0x7,%edx
    1d2e:	be 00 40 00 00       	mov    $0x4000,%esi
    1d33:	48 89 c7             	mov    %rax,%rdi
    1d36:	e8 b5 ed ff ff       	callq  af0 <mprotect@plt>
    1d3b:	85 c0                	test   %eax,%eax
    1d3d:	79 06                	jns    1d45 <__cxa_finalize@plt+0x1225>
    1d3f:	e8 dc ec ff ff       	callq  a20 <abort@plt>
    1d44:	90                   	nop
    1d45:	83 45 fc 01          	addl   $0x1,-0x4(%rbp)
    1d49:	48 8b 45 e8          	mov    -0x18(%rbp),%rax
    1d4d:	0f b6 00             	movzbl (%rax),%eax
    1d50:	0f be c0             	movsbl %al,%eax
    1d53:	39 45 fc             	cmp    %eax,-0x4(%rbp)
    1d56:	7c 84                	jl     1cdc <__cxa_finalize@plt+0x11bc>
    1d58:	eb 07                	jmp    1d61 <__cxa_finalize@plt+0x1241>
    1d5a:	90                   	nop
    1d5b:	eb 04                	jmp    1d61 <__cxa_finalize@plt+0x1241>
    1d5d:	90                   	nop
    1d5e:	eb 01                	jmp    1d61 <__cxa_finalize@plt+0x1241>
    1d60:	90                   	nop
    1d61:	c9                   	leaveq 
    1d62:	c3                   	retq   
    1d63:	55                   	push   %rbp
    1d64:	48 89 e5             	mov    %rsp,%rbp
    1d67:	48 83 ec 20          	sub    $0x20,%rsp
    1d6b:	89 7d ec             	mov    %edi,-0x14(%rbp)
    1d6e:	83 7d ec 00          	cmpl   $0x0,-0x14(%rbp)
    1d72:	78 08                	js     1d7c <__cxa_finalize@plt+0x125c>
    1d74:	8b 45 ec             	mov    -0x14(%rbp),%eax
    1d77:	83 f8 09             	cmp    $0x9,%eax
    1d7a:	76 0a                	jbe    1d86 <__cxa_finalize@plt+0x1266>
    1d7c:	b8 ff ff ff ff       	mov    $0xffffffff,%eax
    1d81:	e9 b5 00 00 00       	jmpq   1e3b <__cxa_finalize@plt+0x131b>
    1d86:	c7 45 fc ff ff ff ff 	movl   $0xffffffff,-0x4(%rbp)
    1d8d:	8b 45 ec             	mov    -0x14(%rbp),%eax
    1d90:	48 98                	cltq   
    1d92:	48 8d 14 85 00 00 00 	lea    0x0(,%rax,4),%rdx
    1d99:	00 
    1d9a:	48 8d 05 9f 12 20 00 	lea    0x20129f(%rip),%rax        # 203040 <__cxa_finalize@plt+0x202520>
    1da1:	8b 04 02             	mov    (%rdx,%rax,1),%eax
    1da4:	83 f8 ff             	cmp    $0xffffffff,%eax
    1da7:	74 19                	je     1dc2 <__cxa_finalize@plt+0x12a2>
    1da9:	8b 45 ec             	mov    -0x14(%rbp),%eax
    1dac:	48 98                	cltq   
    1dae:	48 8d 14 85 00 00 00 	lea    0x0(,%rax,4),%rdx
    1db5:	00 
    1db6:	48 8d 05 83 12 20 00 	lea    0x201283(%rip),%rax        # 203040 <__cxa_finalize@plt+0x202520>
    1dbd:	8b 04 02             	mov    (%rdx,%rax,1),%eax
    1dc0:	eb 79                	jmp    1e3b <__cxa_finalize@plt+0x131b>
    1dc2:	48 8d 45 fc          	lea    -0x4(%rbp),%rax
    1dc6:	be 04 00 00 00       	mov    $0x4,%esi
    1dcb:	48 89 c7             	mov    %rax,%rdi
    1dce:	e8 36 f0 ff ff       	callq  e09 <__cxa_finalize@plt+0x2e9>
    1dd3:	8b 45 fc             	mov    -0x4(%rbp),%eax
    1dd6:	48 63 c8             	movslq %eax,%rcx
    1dd9:	48 89 c8             	mov    %rcx,%rax
    1ddc:	48 c1 e8 03          	shr    $0x3,%rax
    1de0:	48 ba 03 20 00 02 20 	movabs $0x2002002002002003,%rdx
    1de7:	00 02 20 
    1dea:	48 f7 e2             	mul    %rdx
    1ded:	48 c1 ea 09          	shr    $0x9,%rdx
    1df1:	48 89 d0             	mov    %rdx,%rax
    1df4:	48 c1 e0 0c          	shl    $0xc,%rax
    1df8:	48 29 d0             	sub    %rdx,%rax
    1dfb:	48 c1 e0 03          	shl    $0x3,%rax
    1dff:	48 29 c1             	sub    %rax,%rcx
    1e02:	48 89 ca             	mov    %rcx,%rdx
    1e05:	89 d0                	mov    %edx,%eax
    1e07:	89 45 fc             	mov    %eax,-0x4(%rbp)
    1e0a:	8b 55 fc             	mov    -0x4(%rbp),%edx
    1e0d:	8b 45 ec             	mov    -0x14(%rbp),%eax
    1e10:	48 98                	cltq   
    1e12:	48 8d 0c 85 00 00 00 	lea    0x0(,%rax,4),%rcx
    1e19:	00 
    1e1a:	48 8d 05 1f 12 20 00 	lea    0x20121f(%rip),%rax        # 203040 <__cxa_finalize@plt+0x202520>
    1e21:	89 14 01             	mov    %edx,(%rcx,%rax,1)
    1e24:	8b 45 ec             	mov    -0x14(%rbp),%eax
    1e27:	48 98                	cltq   
    1e29:	48 8d 14 85 00 00 00 	lea    0x0(,%rax,4),%rdx
    1e30:	00 
    1e31:	48 8d 05 08 12 20 00 	lea    0x201208(%rip),%rax        # 203040 <__cxa_finalize@plt+0x202520>
    1e38:	8b 04 02             	mov    (%rdx,%rax,1),%eax
    1e3b:	c9                   	leaveq 
    1e3c:	c3                   	retq   
    1e3d:	55                   	push   %rbp
    1e3e:	48 89 e5             	mov    %rsp,%rbp
    1e41:	48 81 ec 10 01 00 00 	sub    $0x110,%rsp
    1e48:	48 89 bd f8 fe ff ff 	mov    %rdi,-0x108(%rbp)
    1e4f:	89 b5 f4 fe ff ff    	mov    %esi,-0x10c(%rbp)
    1e55:	48 83 bd f8 fe ff ff 	cmpq   $0x0,-0x108(%rbp)
    1e5c:	00 
    1e5d:	0f 84 f6 03 00 00    	je     2259 <__cxa_finalize@plt+0x1739>
    1e63:	48 8b 85 f8 fe ff ff 	mov    -0x108(%rbp),%rax
    1e6a:	0f b6 00             	movzbl (%rax),%eax
    1e6d:	84 c0                	test   %al,%al
    1e6f:	0f 88 e7 03 00 00    	js     225c <__cxa_finalize@plt+0x173c>
    1e75:	48 8b 85 f8 fe ff ff 	mov    -0x108(%rbp),%rax
    1e7c:	0f b6 00             	movzbl (%rax),%eax
    1e7f:	3c 09                	cmp    $0x9,%al
    1e81:	0f 87 d5 03 00 00    	ja     225c <__cxa_finalize@plt+0x173c>
    1e87:	83 bd f4 fe ff ff 00 	cmpl   $0x0,-0x10c(%rbp)
    1e8e:	0f 88 cb 03 00 00    	js     225f <__cxa_finalize@plt+0x173f>
    1e94:	48 8b 85 f8 fe ff ff 	mov    -0x108(%rbp),%rax
    1e9b:	0f b6 00             	movzbl (%rax),%eax
    1e9e:	0f be c0             	movsbl %al,%eax
    1ea1:	39 85 f4 fe ff ff    	cmp    %eax,-0x10c(%rbp)
    1ea7:	0f 8d b2 03 00 00    	jge    225f <__cxa_finalize@plt+0x173f>
    1ead:	8b 85 f4 fe ff ff    	mov    -0x10c(%rbp),%eax
    1eb3:	48 98                	cltq   
    1eb5:	48 69 d0 18 80 00 00 	imul   $0x8018,%rax,%rdx
    1ebc:	48 8b 85 f8 fe ff ff 	mov    -0x108(%rbp),%rax
    1ec3:	48 01 d0             	add    %rdx,%rax
    1ec6:	48 83 c0 08          	add    $0x8,%rax
    1eca:	48 89 45 f0          	mov    %rax,-0x10(%rbp)
    1ece:	48 8b 45 f0          	mov    -0x10(%rbp),%rax
    1ed2:	48 89 c7             	mov    %rax,%rdi
    1ed5:	e8 e8 ef ff ff       	callq  ec2 <__cxa_finalize@plt+0x3a2>
    1eda:	8b 95 f4 fe ff ff    	mov    -0x10c(%rbp),%edx
    1ee0:	48 8b 85 f8 fe ff ff 	mov    -0x108(%rbp),%rax
    1ee7:	89 d6                	mov    %edx,%esi
    1ee9:	48 89 c7             	mov    %rax,%rdi
    1eec:	e8 98 fc ff ff       	callq  1b89 <__cxa_finalize@plt+0x1069>
    1ef1:	48 8b 45 f0          	mov    -0x10(%rbp),%rax
    1ef5:	8b 80 10 80 00 00    	mov    0x8010(%rax),%eax
    1efb:	85 c0                	test   %eax,%eax
    1efd:	74 0e                	je     1f0d <__cxa_finalize@plt+0x13ed>
    1eff:	83 f8 01             	cmp    $0x1,%eax
    1f02:	0f 84 a5 00 00 00    	je     1fad <__cxa_finalize@plt+0x148d>
    1f08:	e9 33 03 00 00       	jmpq   2240 <__cxa_finalize@plt+0x1720>
    1f0d:	48 8d 3d 3c 06 00 00 	lea    0x63c(%rip),%rdi        # 2550 <__cxa_finalize@plt+0x1a30>
    1f14:	e8 b9 ee ff ff       	callq  dd2 <__cxa_finalize@plt+0x2b2>
    1f19:	88 45 bf             	mov    %al,-0x41(%rbp)
    1f1c:	0f be 45 bf          	movsbl -0x41(%rbp),%eax
    1f20:	83 f8 67             	cmp    $0x67,%eax
    1f23:	74 0a                	je     1f2f <__cxa_finalize@plt+0x140f>
    1f25:	83 f8 73             	cmp    $0x73,%eax
    1f28:	74 5b                	je     1f85 <__cxa_finalize@plt+0x1465>
    1f2a:	e9 11 03 00 00       	jmpq   2240 <__cxa_finalize@plt+0x1720>
    1f2f:	48 8d 3d 26 06 00 00 	lea    0x626(%rip),%rdi        # 255c <__cxa_finalize@plt+0x1a3c>
    1f36:	e8 4a ee ff ff       	callq  d85 <__cxa_finalize@plt+0x265>
    1f3b:	89 45 a4             	mov    %eax,-0x5c(%rbp)
    1f3e:	48 8d 3d 2d 06 00 00 	lea    0x62d(%rip),%rdi        # 2572 <__cxa_finalize@plt+0x1a52>
    1f45:	e8 3b ee ff ff       	callq  d85 <__cxa_finalize@plt+0x265>
    1f4a:	89 45 a0             	mov    %eax,-0x60(%rbp)
    1f4d:	48 8b 45 f0          	mov    -0x10(%rbp),%rax
    1f51:	48 8b 00             	mov    (%rax),%rax
    1f54:	48 89 45 98          	mov    %rax,-0x68(%rbp)
    1f58:	8b 0d c2 10 20 00    	mov    0x2010c2(%rip),%ecx        # 203020 <__cxa_finalize@plt+0x202500>
    1f5e:	8b 55 a0             	mov    -0x60(%rbp),%edx
    1f61:	8b 75 a4             	mov    -0x5c(%rbp),%esi
    1f64:	48 8b 7d f0          	mov    -0x10(%rbp),%rdi
    1f68:	48 8b 45 98          	mov    -0x68(%rbp),%rax
    1f6c:	ff d0                	callq  *%rax
    1f6e:	48 89 45 90          	mov    %rax,-0x70(%rbp)
    1f72:	8b 55 a0             	mov    -0x60(%rbp),%edx
    1f75:	48 8b 45 90          	mov    -0x70(%rbp),%rax
    1f79:	89 d6                	mov    %edx,%esi
    1f7b:	48 89 c7             	mov    %rax,%rdi
    1f7e:	e8 95 f3 ff ff       	callq  1318 <__cxa_finalize@plt+0x7f8>
    1f83:	eb 23                	jmp    1fa8 <__cxa_finalize@plt+0x1488>
    1f85:	48 8b 45 f0          	mov    -0x10(%rbp),%rax
    1f89:	48 8b 40 08          	mov    0x8(%rax),%rax
    1f8d:	48 89 45 b0          	mov    %rax,-0x50(%rbp)
    1f91:	48 8b 55 f0          	mov    -0x10(%rbp),%rdx
    1f95:	48 8b 45 b0          	mov    -0x50(%rbp),%rax
    1f99:	be 00 00 00 00       	mov    $0x0,%esi
    1f9e:	48 89 d7             	mov    %rdx,%rdi
    1fa1:	ff d0                	callq  *%rax
    1fa3:	48 89 45 a8          	mov    %rax,-0x58(%rbp)
    1fa7:	90                   	nop
    1fa8:	e9 93 02 00 00       	jmpq   2240 <__cxa_finalize@plt+0x1720>
    1fad:	48 8d 3d 9c 05 00 00 	lea    0x59c(%rip),%rdi        # 2550 <__cxa_finalize@plt+0x1a30>
    1fb4:	e8 19 ee ff ff       	callq  dd2 <__cxa_finalize@plt+0x2b2>
    1fb9:	88 45 ef             	mov    %al,-0x11(%rbp)
    1fbc:	0f be 45 ef          	movsbl -0x11(%rbp),%eax
    1fc0:	83 f8 67             	cmp    $0x67,%eax
    1fc3:	74 0e                	je     1fd3 <__cxa_finalize@plt+0x14b3>
    1fc5:	83 f8 73             	cmp    $0x73,%eax
    1fc8:	0f 84 b4 00 00 00    	je     2082 <__cxa_finalize@plt+0x1562>
    1fce:	e9 6c 02 00 00       	jmpq   223f <__cxa_finalize@plt+0x171f>
    1fd3:	48 8b 45 f0          	mov    -0x10(%rbp),%rax
    1fd7:	48 8b 00             	mov    (%rax),%rax
    1fda:	48 89 45 c0          	mov    %rax,-0x40(%rbp)
    1fde:	48 c7 85 40 ff ff ff 	movq   $0x0,-0xc0(%rbp)
    1fe5:	00 00 00 00 
    1fe9:	48 c7 85 48 ff ff ff 	movq   $0x0,-0xb8(%rbp)
    1ff0:	00 00 00 00 
    1ff4:	48 c7 85 50 ff ff ff 	movq   $0x0,-0xb0(%rbp)
    1ffb:	00 00 00 00 
    1fff:	48 c7 85 58 ff ff ff 	movq   $0x0,-0xa8(%rbp)
    2006:	00 00 00 00 
    200a:	48 c7 85 60 ff ff ff 	movq   $0x0,-0xa0(%rbp)
    2011:	00 00 00 00 
    2015:	48 c7 85 68 ff ff ff 	movq   $0x0,-0x98(%rbp)
    201c:	00 00 00 00 
    2020:	48 c7 85 70 ff ff ff 	movq   $0x0,-0x90(%rbp)
    2027:	00 00 00 00 
    202b:	48 c7 85 78 ff ff ff 	movq   $0x0,-0x88(%rbp)
    2032:	00 00 00 00 
    2036:	48 8d 85 40 ff ff ff 	lea    -0xc0(%rbp),%rax
    203d:	be 40 00 00 00       	mov    $0x40,%esi
    2042:	48 89 c7             	mov    %rax,%rdi
    2045:	e8 bf ed ff ff       	callq  e09 <__cxa_finalize@plt+0x2e9>
    204a:	48 8d b5 40 ff ff ff 	lea    -0xc0(%rbp),%rsi
    2051:	48 8b 4d f0          	mov    -0x10(%rbp),%rcx
    2055:	48 8b 45 c0          	mov    -0x40(%rbp),%rax
    2059:	ba 40 00 00 00       	mov    $0x40,%edx
    205e:	48 89 cf             	mov    %rcx,%rdi
    2061:	ff d0                	callq  *%rax
    2063:	89 45 8c             	mov    %eax,-0x74(%rbp)
    2066:	48 8d 45 8c          	lea    -0x74(%rbp),%rax
    206a:	ba 04 00 00 00       	mov    $0x4,%edx
    206f:	48 89 c6             	mov    %rax,%rsi
    2072:	bf 01 00 00 00       	mov    $0x1,%edi
    2077:	e8 d4 e9 ff ff       	callq  a50 <write@plt>
    207c:	90                   	nop
    207d:	e9 bd 01 00 00       	jmpq   223f <__cxa_finalize@plt+0x171f>
    2082:	48 8d 3d fe 04 00 00 	lea    0x4fe(%rip),%rdi        # 2587 <__cxa_finalize@plt+0x1a67>
    2089:	e8 f7 ec ff ff       	callq  d85 <__cxa_finalize@plt+0x265>
    208e:	89 45 fc             	mov    %eax,-0x4(%rbp)
    2091:	48 8d 3d 03 05 00 00 	lea    0x503(%rip),%rdi        # 259b <__cxa_finalize@plt+0x1a7b>
    2098:	e8 e8 ec ff ff       	callq  d85 <__cxa_finalize@plt+0x265>
    209d:	89 45 e8             	mov    %eax,-0x18(%rbp)
    20a0:	83 7d fc 00          	cmpl   $0x0,-0x4(%rbp)
    20a4:	78 08                	js     20ae <__cxa_finalize@plt+0x158e>
    20a6:	8b 45 fc             	mov    -0x4(%rbp),%eax
    20a9:	83 f8 40             	cmp    $0x40,%eax
    20ac:	76 07                	jbe    20b5 <__cxa_finalize@plt+0x1595>
    20ae:	c7 45 fc 40 00 00 00 	movl   $0x40,-0x4(%rbp)
    20b5:	48 c7 85 00 ff ff ff 	movq   $0x0,-0x100(%rbp)
    20bc:	00 00 00 00 
    20c0:	48 c7 85 08 ff ff ff 	movq   $0x0,-0xf8(%rbp)
    20c7:	00 00 00 00 
    20cb:	48 c7 85 10 ff ff ff 	movq   $0x0,-0xf0(%rbp)
    20d2:	00 00 00 00 
    20d6:	48 c7 85 18 ff ff ff 	movq   $0x0,-0xe8(%rbp)
    20dd:	00 00 00 00 
    20e1:	48 c7 85 20 ff ff ff 	movq   $0x0,-0xe0(%rbp)
    20e8:	00 00 00 00 
    20ec:	48 c7 85 28 ff ff ff 	movq   $0x0,-0xd8(%rbp)
    20f3:	00 00 00 00 
    20f7:	48 c7 85 30 ff ff ff 	movq   $0x0,-0xd0(%rbp)
    20fe:	00 00 00 00 
    2102:	48 c7 85 38 ff ff ff 	movq   $0x0,-0xc8(%rbp)
    2109:	00 00 00 00 
    210d:	8b 45 fc             	mov    -0x4(%rbp),%eax
    2110:	48 63 d0             	movslq %eax,%rdx
    2113:	48 8d 85 00 ff ff ff 	lea    -0x100(%rbp),%rax
    211a:	48 89 c6             	mov    %rax,%rsi
    211d:	bf 00 00 00 00       	mov    $0x0,%edi
    2122:	e8 89 e9 ff ff       	callq  ab0 <read@plt>
    2127:	48 89 45 e0          	mov    %rax,-0x20(%rbp)
    212b:	48 83 7d e0 00       	cmpq   $0x0,-0x20(%rbp)
    2130:	0f 88 02 01 00 00    	js     2238 <__cxa_finalize@plt+0x1718>
    2136:	48 8b 45 e0          	mov    -0x20(%rbp),%rax
    213a:	89 45 fc             	mov    %eax,-0x4(%rbp)
    213d:	8b 85 f4 fe ff ff    	mov    -0x10c(%rbp),%eax
    2143:	89 c7                	mov    %eax,%edi
    2145:	e8 19 fc ff ff       	callq  1d63 <__cxa_finalize@plt+0x1243>
    214a:	89 45 dc             	mov    %eax,-0x24(%rbp)
    214d:	83 7d dc ff          	cmpl   $0xffffffff,-0x24(%rbp)
    2151:	0f 84 e4 00 00 00    	je     223b <__cxa_finalize@plt+0x171b>
    2157:	48 8b 55 f0          	mov    -0x10(%rbp),%rdx
    215b:	8b 45 dc             	mov    -0x24(%rbp),%eax
    215e:	48 98                	cltq   
    2160:	c6 44 02 18 01       	movb   $0x1,0x18(%rdx,%rax,1)
    2165:	48 c7 85 40 ff ff ff 	movq   $0x0,-0xc0(%rbp)
    216c:	00 00 00 00 
    2170:	48 c7 85 48 ff ff ff 	movq   $0x0,-0xb8(%rbp)
    2177:	00 00 00 00 
    217b:	48 c7 85 50 ff ff ff 	movq   $0x0,-0xb0(%rbp)
    2182:	00 00 00 00 
    2186:	48 c7 85 58 ff ff ff 	movq   $0x0,-0xa8(%rbp)
    218d:	00 00 00 00 
    2191:	48 c7 85 60 ff ff ff 	movq   $0x0,-0xa0(%rbp)
    2198:	00 00 00 00 
    219c:	48 c7 85 68 ff ff ff 	movq   $0x0,-0x98(%rbp)
    21a3:	00 00 00 00 
    21a7:	48 c7 85 70 ff ff ff 	movq   $0x0,-0x90(%rbp)
    21ae:	00 00 00 00 
    21b2:	48 c7 85 78 ff ff ff 	movq   $0x0,-0x88(%rbp)
    21b9:	00 00 00 00 
    21bd:	48 8d 85 40 ff ff ff 	lea    -0xc0(%rbp),%rax
    21c4:	be 40 00 00 00       	mov    $0x40,%esi
    21c9:	48 89 c7             	mov    %rax,%rdi
    21cc:	e8 38 ec ff ff       	callq  e09 <__cxa_finalize@plt+0x2e9>
    21d1:	48 8b 45 f0          	mov    -0x10(%rbp),%rax
    21d5:	48 8b 40 08          	mov    0x8(%rax),%rax
    21d9:	48 89 45 d0          	mov    %rax,-0x30(%rbp)
    21dd:	4c 8d 8d 40 ff ff ff 	lea    -0xc0(%rbp),%r9
    21e4:	44 8b 45 e8          	mov    -0x18(%rbp),%r8d
    21e8:	8b 4d fc             	mov    -0x4(%rbp),%ecx
    21eb:	48 8d 95 00 ff ff ff 	lea    -0x100(%rbp),%rdx
    21f2:	8b 75 dc             	mov    -0x24(%rbp),%esi
    21f5:	48 8b 7d f0          	mov    -0x10(%rbp),%rdi
    21f9:	48 83 ec 08          	sub    $0x8,%rsp
    21fd:	6a 40                	pushq  $0x40
    21ff:	48 8b 45 d0          	mov    -0x30(%rbp),%rax
    2203:	ff d0                	callq  *%rax
    2205:	48 83 c4 10          	add    $0x10,%rsp
    2209:	48 89 45 c8          	mov    %rax,-0x38(%rbp)
    220d:	48 83 7d c8 00       	cmpq   $0x0,-0x38(%rbp)
    2212:	74 2a                	je     223e <__cxa_finalize@plt+0x171e>
    2214:	8b 45 fc             	mov    -0x4(%rbp),%eax
    2217:	48 63 d0             	movslq %eax,%rdx
    221a:	48 8b 45 c8          	mov    -0x38(%rbp),%rax
    221e:	48 89 c6             	mov    %rax,%rsi
    2221:	bf 01 00 00 00       	mov    $0x1,%edi
    2226:	e8 25 e8 ff ff       	callq  a50 <write@plt>
    222b:	bf 0a 00 00 00       	mov    $0xa,%edi
    2230:	e8 db e7 ff ff       	callq  a10 <putchar@plt>
    2235:	90                   	nop
    2236:	eb 07                	jmp    223f <__cxa_finalize@plt+0x171f>
    2238:	90                   	nop
    2239:	eb 04                	jmp    223f <__cxa_finalize@plt+0x171f>
    223b:	90                   	nop
    223c:	eb 01                	jmp    223f <__cxa_finalize@plt+0x171f>
    223e:	90                   	nop
    223f:	90                   	nop
    2240:	8b 95 f4 fe ff ff    	mov    -0x10c(%rbp),%edx
    2246:	48 8b 85 f8 fe ff ff 	mov    -0x108(%rbp),%rax
    224d:	89 d6                	mov    %edx,%esi
    224f:	48 89 c7             	mov    %rax,%rdi
    2252:	e8 1f fa ff ff       	callq  1c76 <__cxa_finalize@plt+0x1156>
    2257:	eb 07                	jmp    2260 <__cxa_finalize@plt+0x1740>
    2259:	90                   	nop
    225a:	eb 04                	jmp    2260 <__cxa_finalize@plt+0x1740>
    225c:	90                   	nop
    225d:	eb 01                	jmp    2260 <__cxa_finalize@plt+0x1740>
    225f:	90                   	nop
    2260:	c9                   	leaveq 
    2261:	c3                   	retq   
    2262:	55                   	push   %rbp
    2263:	48 89 e5             	mov    %rsp,%rbp
    2266:	48 83 ec 20          	sub    $0x20,%rsp
    226a:	48 89 7d e8          	mov    %rdi,-0x18(%rbp)
    226e:	48 8d 3d 3c 03 00 00 	lea    0x33c(%rip),%rdi        # 25b1 <__cxa_finalize@plt+0x1a91>
    2275:	e8 58 eb ff ff       	callq  dd2 <__cxa_finalize@plt+0x2b2>
    227a:	88 45 ff             	mov    %al,-0x1(%rbp)
    227d:	0f be 45 ff          	movsbl -0x1(%rbp),%eax
    2281:	83 f8 63             	cmp    $0x63,%eax
    2284:	74 2e                	je     22b4 <__cxa_finalize@plt+0x1794>
    2286:	83 f8 6c             	cmp    $0x6c,%eax
    2289:	74 07                	je     2292 <__cxa_finalize@plt+0x1772>
    228b:	83 f8 61             	cmp    $0x61,%eax
    228e:	74 4d                	je     22dd <__cxa_finalize@plt+0x17bd>
    2290:	eb 44                	jmp    22d6 <__cxa_finalize@plt+0x17b6>
    2292:	48 8d 3d 2a 03 00 00 	lea    0x32a(%rip),%rdi        # 25c3 <__cxa_finalize@plt+0x1aa3>
    2299:	e8 e7 ea ff ff       	callq  d85 <__cxa_finalize@plt+0x265>
    229e:	89 45 f8             	mov    %eax,-0x8(%rbp)
    22a1:	8b 55 f8             	mov    -0x8(%rbp),%edx
    22a4:	48 8b 45 e8          	mov    -0x18(%rbp),%rax
    22a8:	89 d6                	mov    %edx,%esi
    22aa:	48 89 c7             	mov    %rax,%rdi
    22ad:	e8 08 f7 ff ff       	callq  19ba <__cxa_finalize@plt+0xe9a>
    22b2:	eb 2a                	jmp    22de <__cxa_finalize@plt+0x17be>
    22b4:	48 8d 3d 23 03 00 00 	lea    0x323(%rip),%rdi        # 25de <__cxa_finalize@plt+0x1abe>
    22bb:	e8 c5 ea ff ff       	callq  d85 <__cxa_finalize@plt+0x265>
    22c0:	89 45 f4             	mov    %eax,-0xc(%rbp)
    22c3:	8b 55 f4             	mov    -0xc(%rbp),%edx
    22c6:	48 8b 45 e8          	mov    -0x18(%rbp),%rax
    22ca:	89 d6                	mov    %edx,%esi
    22cc:	48 89 c7             	mov    %rax,%rdi
    22cf:	e8 69 fb ff ff       	callq  1e3d <__cxa_finalize@plt+0x131d>
    22d4:	eb 08                	jmp    22de <__cxa_finalize@plt+0x17be>
    22d6:	b8 00 00 00 00       	mov    $0x0,%eax
    22db:	eb 06                	jmp    22e3 <__cxa_finalize@plt+0x17c3>
    22dd:	90                   	nop
    22de:	b8 01 00 00 00       	mov    $0x1,%eax
    22e3:	c9                   	leaveq 
    22e4:	c3                   	retq   
    22e5:	55                   	push   %rbp
    22e6:	48 89 e5             	mov    %rsp,%rbp
    22e9:	48 8d 05 a0 ef ff ff 	lea    -0x1060(%rip),%rax        # 1290 <__cxa_finalize@plt+0x770>
    22f0:	48 89 05 c9 0d 20 00 	mov    %rax,0x200dc9(%rip)        # 2030c0 <stderr@@GLIBC_2.2.5+0x20>
    22f7:	48 8d 05 6e ed ff ff 	lea    -0x1292(%rip),%rax        # 106c <__cxa_finalize@plt+0x54c>
    22fe:	48 89 05 c3 0d 20 00 	mov    %rax,0x200dc3(%rip)        # 2030c8 <stderr@@GLIBC_2.2.5+0x28>
    2305:	48 8d 05 74 f0 ff ff 	lea    -0xf8c(%rip),%rax        # 1380 <__cxa_finalize@plt+0x860>
    230c:	48 89 05 bd 0d 20 00 	mov    %rax,0x200dbd(%rip)        # 2030d0 <stderr@@GLIBC_2.2.5+0x30>
    2313:	48 8d 05 00 f5 ff ff 	lea    -0xb00(%rip),%rax        # 181a <__cxa_finalize@plt+0xcfa>
    231a:	48 89 05 b7 0d 20 00 	mov    %rax,0x200db7(%rip)        # 2030d8 <stderr@@GLIBC_2.2.5+0x38>
    2321:	48 8d 05 18 02 00 00 	lea    0x218(%rip),%rax        # 2540 <__cxa_finalize@plt+0x1a20>
    2328:	48 89 05 b1 0d 20 00 	mov    %rax,0x200db1(%rip)        # 2030e0 <stderr@@GLIBC_2.2.5+0x40>
    232f:	be 05 00 00 00       	mov    $0x5,%esi
    2334:	48 8d 3d 85 0d 20 00 	lea    0x200d85(%rip),%rdi        # 2030c0 <stderr@@GLIBC_2.2.5+0x20>
    233b:	e8 c4 eb ff ff       	callq  f04 <__cxa_finalize@plt+0x3e4>
    2340:	90                   	nop
    2341:	5d                   	pop    %rbp
    2342:	c3                   	retq   
    2343:	55                   	push   %rbp
    2344:	48 89 e5             	mov    %rsp,%rbp
    2347:	c7 45 fc 00 00 00 00 	movl   $0x0,-0x4(%rbp)
    234e:	eb 1f                	jmp    236f <__cxa_finalize@plt+0x184f>
    2350:	8b 45 fc             	mov    -0x4(%rbp),%eax
    2353:	48 98                	cltq   
    2355:	48 8d 14 85 00 00 00 	lea    0x0(,%rax,4),%rdx
    235c:	00 
    235d:	48 8d 05 dc 0c 20 00 	lea    0x200cdc(%rip),%rax        # 203040 <__cxa_finalize@plt+0x202520>
    2364:	c7 04 02 ff ff ff ff 	movl   $0xffffffff,(%rdx,%rax,1)
    236b:	83 45 fc 01          	addl   $0x1,-0x4(%rbp)
    236f:	8b 45 fc             	mov    -0x4(%rbp),%eax
    2372:	83 f8 09             	cmp    $0x9,%eax
    2375:	76 d9                	jbe    2350 <__cxa_finalize@plt+0x1830>
    2377:	90                   	nop
    2378:	5d                   	pop    %rbp
    2379:	c3                   	retq   
    237a:	55                   	push   %rbp
    237b:	48 89 e5             	mov    %rsp,%rbp
    237e:	be 04 00 00 00       	mov    $0x4,%esi
    2383:	48 8d 3d 96 0c 20 00 	lea    0x200c96(%rip),%rdi        # 203020 <__cxa_finalize@plt+0x202500>
    238a:	e8 7a ea ff ff       	callq  e09 <__cxa_finalize@plt+0x2e9>
    238f:	90                   	nop
    2390:	5d                   	pop    %rbp
    2391:	c3                   	retq   
    2392:	55                   	push   %rbp
    2393:	48 89 e5             	mov    %rsp,%rbp
    2396:	48 81 ec 00 01 05 00 	sub    $0x50100,%rsp
    239d:	48 8d 85 00 ff fa ff 	lea    -0x50100(%rbp),%rax
    23a4:	ba f8 00 05 00       	mov    $0x500f8,%edx
    23a9:	be 00 00 00 00       	mov    $0x0,%esi
    23ae:	48 89 c7             	mov    %rax,%rdi
    23b1:	e8 da e6 ff ff       	callq  a90 <memset@plt>
    23b6:	48 8d 85 00 ff fa ff 	lea    -0x50100(%rbp),%rax
    23bd:	ba f8 00 05 00       	mov    $0x500f8,%edx
    23c2:	be 00 00 00 00       	mov    $0x0,%esi
    23c7:	48 89 c7             	mov    %rax,%rdi
    23ca:	e8 c1 e6 ff ff       	callq  a90 <memset@plt>
    23cf:	48 8d 3d 22 02 00 00 	lea    0x222(%rip),%rdi        # 25f8 <__cxa_finalize@plt+0x1ad8>
    23d6:	e8 55 e6 ff ff       	callq  a30 <puts@plt>
    23db:	90                   	nop
    23dc:	48 8d 85 00 ff fa ff 	lea    -0x50100(%rbp),%rax
    23e3:	48 89 c7             	mov    %rax,%rdi
    23e6:	e8 77 fe ff ff       	callq  2262 <__cxa_finalize@plt+0x1742>
    23eb:	85 c0                	test   %eax,%eax
    23ed:	75 ed                	jne    23dc <__cxa_finalize@plt+0x18bc>
    23ef:	90                   	nop
    23f0:	c9                   	leaveq 
    23f1:	c3                   	retq   
    23f2:	55                   	push   %rbp
    23f3:	48 89 e5             	mov    %rsp,%rbp
    23f6:	48 83 ec 10          	sub    $0x10,%rsp
    23fa:	89 7d fc             	mov    %edi,-0x4(%rbp)
    23fd:	48 89 75 f0          	mov    %rsi,-0x10(%rbp)
    2401:	48 8b 05 88 0c 20 00 	mov    0x200c88(%rip),%rax        # 203090 <stdin@@GLIBC_2.2.5>
    2408:	be 00 00 00 00       	mov    $0x0,%esi
    240d:	48 89 c7             	mov    %rax,%rdi
    2410:	e8 5b e6 ff ff       	callq  a70 <setbuf@plt>
    2415:	48 8b 05 64 0c 20 00 	mov    0x200c64(%rip),%rax        # 203080 <stdout@@GLIBC_2.2.5>
    241c:	be 00 00 00 00       	mov    $0x0,%esi
    2421:	48 89 c7             	mov    %rax,%rdi
    2424:	e8 47 e6 ff ff       	callq  a70 <setbuf@plt>
    2429:	48 8b 05 70 0c 20 00 	mov    0x200c70(%rip),%rax        # 2030a0 <stderr@@GLIBC_2.2.5>
    2430:	be 00 00 00 00       	mov    $0x0,%esi
    2435:	48 89 c7             	mov    %rax,%rdi
    2438:	e8 33 e6 ff ff       	callq  a70 <setbuf@plt>
    243d:	bf b0 04 00 00       	mov    $0x4b0,%edi
    2442:	e8 59 e6 ff ff       	callq  aa0 <alarm@plt>
    2447:	b8 00 00 00 00       	mov    $0x0,%eax
    244c:	e8 f2 fe ff ff       	callq  2343 <__cxa_finalize@plt+0x1823>
    2451:	b8 00 00 00 00       	mov    $0x0,%eax
    2456:	e8 1f ff ff ff       	callq  237a <__cxa_finalize@plt+0x185a>
    245b:	b8 00 00 00 00       	mov    $0x0,%eax
    2460:	e8 80 fe ff ff       	callq  22e5 <__cxa_finalize@plt+0x17c5>
    2465:	b8 00 00 00 00       	mov    $0x0,%eax
    246a:	e8 23 ff ff ff       	callq  2392 <__cxa_finalize@plt+0x1872>
    246f:	b8 00 00 00 00       	mov    $0x0,%eax
    2474:	c9                   	leaveq 
    2475:	c3                   	retq   
    2476:	66 2e 0f 1f 84 00 00 	nopw   %cs:0x0(%rax,%rax,1)
    247d:	00 00 00 
    2480:	41 57                	push   %r15
    2482:	41 56                	push   %r14
    2484:	41 89 ff             	mov    %edi,%r15d
    2487:	41 55                	push   %r13
    2489:	41 54                	push   %r12
    248b:	4c 8d 25 8e 08 20 00 	lea    0x20088e(%rip),%r12        # 202d20 <__cxa_finalize@plt+0x202200>
    2492:	55                   	push   %rbp
    2493:	48 8d 2d 96 08 20 00 	lea    0x200896(%rip),%rbp        # 202d30 <__cxa_finalize@plt+0x202210>
    249a:	53                   	push   %rbx
    249b:	49 89 f6             	mov    %rsi,%r14
    249e:	49 89 d5             	mov    %rdx,%r13
    24a1:	4c 29 e5             	sub    %r12,%rbp
    24a4:	48 83 ec 08          	sub    $0x8,%rsp
    24a8:	48 c1 fd 03          	sar    $0x3,%rbp
    24ac:	e8 1f e5 ff ff       	callq  9d0 <free@plt-0x30>
    24b1:	48 85 ed             	test   %rbp,%rbp
    24b4:	74 20                	je     24d6 <__cxa_finalize@plt+0x19b6>
    24b6:	31 db                	xor    %ebx,%ebx
    24b8:	0f 1f 84 00 00 00 00 	nopl   0x0(%rax,%rax,1)
    24bf:	00 
    24c0:	4c 89 ea             	mov    %r13,%rdx
    24c3:	4c 89 f6             	mov    %r14,%rsi
    24c6:	44 89 ff             	mov    %r15d,%edi
    24c9:	41 ff 14 dc          	callq  *(%r12,%rbx,8)
    24cd:	48 83 c3 01          	add    $0x1,%rbx
    24d1:	48 39 dd             	cmp    %rbx,%rbp
    24d4:	75 ea                	jne    24c0 <__cxa_finalize@plt+0x19a0>
    24d6:	48 83 c4 08          	add    $0x8,%rsp
    24da:	5b                   	pop    %rbx
    24db:	5d                   	pop    %rbp
    24dc:	41 5c                	pop    %r12
    24de:	41 5d                	pop    %r13
    24e0:	41 5e                	pop    %r14
    24e2:	41 5f                	pop    %r15
    24e4:	c3                   	retq   
    24e5:	90                   	nop
    24e6:	66 2e 0f 1f 84 00 00 	nopw   %cs:0x0(%rax,%rax,1)
    24ed:	00 00 00 
    24f0:	f3 c3                	repz retq 

Disassembly of section .fini:

00000000000024f4 <.fini>:
    24f4:	48 83 ec 08          	sub    $0x8,%rsp
    24f8:	48 83 c4 08          	add    $0x8,%rsp
    24fc:	c3                   	retq   
